Microchip MPLAB XC8 Compiler V2.32

Linker command line:

-W-3 --edf=C:\Program Files\Microchip\xc8\v2.32\pic\dat\en_msgs.txt -cn \
  -h+dist/default/production\Shift_Register_Testing.X.production.sym \
  --cmf=dist/default/production\Shift_Register_Testing.X.production.cmf -z \
  -Q16F690 -oC:\Users\X1\AppData\Local\Temp\xcAspas.4 \
  --defsym=__MPLAB_BUILD=1 \
  -Mdist/default/production/Shift_Register_Testing.X.production.map -E1 \
  -ver=XC8 Compiler --acfsm=1493 -ASTACK=0A0h-0EFh -pstack=STACK \
  -ACODE=00h-07FFhx2 -ASTRCODE=00h-0FFFh -ASTRING=00h-0FFhx16 \
  -ACONST=00h-0FFhx16 -AENTRY=00h-0FFhx16 -ACOMMON=070h-07Fh \
  -ABANK0=020h-06Fh -ABANK1=0A0h-0EFh -ABANK2=0120h-016Fh \
  -ARAM=020h-06Fh,0A0h-0EFh,0120h-016Fh \
  -AABS1=020h-07Fh,0A0h-0EFh,0120h-016Fh -ASFR0=00h-01Fh -ASFR1=080h-09Fh \
  -ASFR2=0100h-011Fh -ASFR3=0180h-01EFh -ACONFIG=02007h-02007h -DCONFIG=2 \
  -AIDLOC=02000h-02003h -DIDLOC=2 -AEEDATA=00h-0FFh/02100h \
  -peeprom_data=EEDATA -DEEDATA=2 -DCODE=2 -DSTRCODE=2 -DSTRING=2 -DCONST=2 \
  -DENTRY=2 -preset_vec=00h,intentry=04h,init,end_init -ppowerup=CODE \
  -pcinit=CODE -pfunctab=ENTRY -k C:\Users\X1\AppData\Local\Temp\xcAspas.o \
  dist/default/production\Shift_Register_Testing.X.production.o 

Object code version is 3.11

Machine type is 16F690



                Name                               Link     Load   Length Selector   Space Scale
C:\Users\X1\AppData\Local\Temp\xcAspas.o
                end_init                              B        B        2        8       0
                reset_vec                             0        0        2        0       0
                config                             2007     2007        1        0       4
dist/default/production\Shift_Register_Testing.X.production.o
                cinit                                 D        D        6        8       0
                intentry                              4        4        7        8       0
                config                             2007     2007        1        0       4
                text11                              88F      88F       16     111E       0
                text10                              8A5      8A5       16     114A       0
                text9                               7F8      7F8        7        8       0
                text8                               7F1      7F1        7        8       0
                text7                               918      918       5A     1230       0
                text6                               8BB      8BB       16     1176       0
                text5                               766      766       8B        8       0
                text4                               972      972      68E     12E4       0
                text3                               6D9      6D9       8D        8       0
                text2                                13       13      6C6        8       0
                text1                               8D1      8D1       19     11A2       0
                maintext                            8EA      8EA       2E     11D4       0
                cstackBANK0                          20       20       24       20       1
                cstackCOMMON                         70       70        B       70       1
                bssBANK0                             44       44        1       20       1

TOTAL           Name                               Link     Load   Length     Space
        CLASS   STACK          

        CLASS   CODE           
                end_init                              B        B        2         0
                cinit                                 D        D        6         0
                intentry                              4        4        7         0
                reset_vec                             0        0        2         0
                text11                              88F      88F       16         0
                text10                              8A5      8A5       16         0
                text9                               7F8      7F8        7         0
                text8                               7F1      7F1        7         0
                text7                               918      918       5A         0
                text6                               8BB      8BB       16         0
                text5                               766      766       8B         0
                text4                               972      972      68E         0
                text3                               6D9      6D9       8D         0
                text2                                13       13      6C6         0
                text1                               8D1      8D1       19         0
                maintext                            8EA      8EA       2E         0

        CLASS   STRCODE        

        CLASS   STRING         

        CLASS   CONST          

        CLASS   ENTRY          

        CLASS   COMMON         
                cstackCOMMON                         70       70        B         1

        CLASS   BANK0          
                cstackBANK0                          20       20       24         1
                bssBANK0                             44       44        1         1

        CLASS   BANK1          

        CLASS   BANK2          

        CLASS   RAM            

        CLASS   ABS1           
                abs_s1                               7E       7E        2         1

        CLASS   SFR0           

        CLASS   SFR1           

        CLASS   SFR2           

        CLASS   SFR3           

        CLASS   CONFIG         
                config                             2007     2007        1         4

        CLASS   IDLOC          

        CLASS   EEDATA         

        CLASS   BANK3          



SEGMENTS        Name                           Load    Length   Top    Selector   Space  Class     Delta

                reset_vec                      000000  000002  000002         0       0  CODE        2
                intentry                       000004  0007FB  0007FF         8       0  CODE        2
                cstackBANK0                    000020  000025  000045        20       1  BANK0       1
                cstackCOMMON                   000070  00000B  00007B        70       1  COMMON      1
                text11                         00088F  000016  0008A5      111E       0  CODE        2
                text10                         0008A5  000016  0008BB      114A       0  CODE        2
                text6                          0008BB  000016  0008D1      1176       0  CODE        2
                text1                          0008D1  000019  0008EA      11A2       0  CODE        2
                maintext                       0008EA  00002E  000918      11D4       0  CODE        2
                text7                          000918  00005A  000972      1230       0  CODE        2
                text4                          000972  00068E  001000      12E4       0  CODE        2


UNUSED ADDRESS RANGES

        Name                Unused          Largest block    Delta
        BANK0            0045-006F             2B           1
        BANK1            00A0-00EF             50           1
        BANK2            0120-016F             50           1
        CODE             0002-0003              2           2
                         07FF-088E              1
        COMMON           007B-007D              3           1
        CONST            0002-0003              2           2
                         07FF-088E              1
        EEDATA           2100-21FF            100           2
        ENTRY            0002-0003              2           2
                         07FF-088E              1
        IDLOC            2000-2003              4           2
        RAM              0045-006F             2B           1
                         00A0-00EF             50
                         0120-016F             50
        SFR0             0000-001F             20           1
        SFR1             0080-009F             20           1
        SFR2             0100-011F             20           1
        SFR3             0180-01EF             70           1
        STACK            00A0-00EF             50           1
        STRCODE          0002-0003              2           2
                         07FF-088E             90
        STRING           0002-0003              2           2
                         07FF-088E              1

                                  Symbol Table

_INTCON                         (abs)        000B
_ISR                            text11       088F
_OSCCON                         (abs)        008F
_PIE1                           (abs)        008C
_PIR1bits                       (abs)        000C
_PORTBbits                      (abs)        0006
_PORTCbits                      (abs)        0007
_T1CONbits                      (abs)        0010
_TMR1                           (abs)        000E
_TRISB                          (abs)        0086
_TRISC                          (abs)        0087
__Habs1                         abs1         0000
__Hbank0                        bank0        0000
__Hbank1                        bank1        0000
__Hbank2                        bank2        0000
__Hbank3                        bank3        0000
__HbssBANK0                     bssBANK0     0000
__Hcinit                        cinit        0013
__Hclrtext                      clrtext      0000
__Hcode                         code         0000
__Hcommon                       common       0000
__Hconfig                       config       2008
__HcstackBANK0                  cstackBANK0  0000
__HcstackCOMMON                 cstackCOMMON 0000
__Heeprom_data                  eeprom_data  0000
__Hend_init                     end_init     000D
__Hfunctab                      functab      0000
__Hinit                         init         000B
__Hintentry                     intentry     000B
__Hmaintext                     maintext     0000
__Hpowerup                      powerup      0000
__Hram                          ram          0000
__Hreset_vec                    reset_vec    0002
__Hsfr0                         sfr0         0000
__Hsfr1                         sfr1         0000
__Hsfr2                         sfr2         0000
__Hsfr3                         sfr3         0000
__Hspace_0                      (abs)        1000
__Hspace_1                      (abs)        007B
__Hspace_2                      (abs)        0000
__Hspace_3                      (abs)        0000
__Hspace_4                      (abs)        400F
__Hstack                        stack        0000
__Hstrings                      strings      0000
__Htext                         text         0000
__Labs1                         abs1         0000
__Lbank0                        bank0        0000
__Lbank1                        bank1        0000
__Lbank2                        bank2        0000
__Lbank3                        bank3        0000
__LbssBANK0                     bssBANK0     0000
__Lcinit                        cinit        000D
__Lclrtext                      clrtext      0000
__Lcode                         code         0000
__Lcommon                       common       0000
__Lconfig                       config       0000
__LcstackBANK0                  cstackBANK0  0000
__LcstackCOMMON                 cstackCOMMON 0000
__Leeprom_data                  eeprom_data  0000
__Lend_init                     end_init     000B
__Lfunctab                      functab      0000
__Linit                         init         000B
__Lintentry                     intentry     0004
__Lmaintext                     maintext     0000
__Lpowerup                      powerup      0000
__Lram                          ram          0000
__Lreset_vec                    reset_vec    0000
__Lsfr0                         sfr0         0000
__Lsfr1                         sfr1         0000
__Lsfr2                         sfr2         0000
__Lsfr3                         sfr3         0000
__Lspace_0                      (abs)        0000
__Lspace_1                      (abs)        0000
__Lspace_2                      (abs)        0000
__Lspace_3                      (abs)        0000
__Lspace_4                      (abs)        0000
__Lstack                        stack        0000
__Lstrings                      strings      0000
__Ltext                         text         0000
__S0                            (abs)        1000
__S1                            (abs)        007B
__S2                            (abs)        0000
__S3                            (abs)        0000
___int_sp                       stack        0000
___latbits                      (abs)        0001
___sp                           stack        0000
___stackhi                      (abs)        0000
___stacklo                      (abs)        0000
__end_of_ISR                    text11       08A5
__end_of__initialization        cinit        0010
__end_of_animation_green_arrow  text4        1000
__end_of_animation_red_arrow    text2        06D9
__end_of_green_arrow            text5        07F1
__end_of_initiate               text1        08EA
__end_of_input_data             text7        0972
__end_of_input_high             text9        07FF
__end_of_input_low              text8        07F8
__end_of_latch_output           text6        08D1
__end_of_main                   maintext     0918
__end_of_red_arrow              text3        0766
__end_of_serial_clock_pulse     text10       08BB
__initialization                cinit        000D
__pbssBANK0                     bssBANK0     0044
__pcstackBANK0                  cstackBANK0  0020
__pcstackCOMMON                 cstackCOMMON 0070
__pintentry                     intentry     0004
__pmaintext                     maintext     08EA
__ptext1                        text1        08D1
__ptext10                       text10       08A5
__ptext11                       text11       088F
__ptext2                        text2        0013
__ptext3                        text3        06D9
__ptext4                        text4        0972
__ptext5                        text5        0766
__ptext6                        text6        08BB
__ptext7                        text7        0918
__ptext8                        text8        07F1
__ptext9                        text9        07F8
__size_of_ISR                   (abs)        0000
__size_of_animation_green_arrow (abs)        0000
__size_of_animation_red_arrow   (abs)        0000
__size_of_green_arrow           (abs)        0000
__size_of_initiate              (abs)        0000
__size_of_input_data            (abs)        0000
__size_of_input_high            (abs)        0000
__size_of_input_low             (abs)        0000
__size_of_latch_output          (abs)        0000
__size_of_main                  (abs)        0000
__size_of_red_arrow             (abs)        0000
__size_of_serial_clock_pulse    (abs)        0000
_animation_green_arrow          text4        0972
_animation_red_arrow            text2        0013
_green_arrow                    text5        0766
_initiate                       text1        08D1
_input_data                     text7        0918
_input_high                     text9        07F8
_input_low                      text8        07F1
_latch_output                   text6        08BB
_main                           maintext     08EA
_red_arrow                      text3        06D9
_serial_clock_pulse             text10       08A5
_timer_count                    bssBANK0     0044
animation_green_arrow@ani_timer cstackBANK0  002C
animation_green_arrow@col       cstackBANK0  003F
animation_green_arrow@i         cstackBANK0  0024
animation_green_arrow@i_232     cstackBANK0  0028
animation_green_arrow@i_233     cstackBANK0  002D
animation_green_arrow@i_234     cstackBANK0  0031
animation_green_arrow@i_235     cstackBANK0  0035
animation_green_arrow@i_236     cstackBANK0  0039
animation_green_arrow@i_237     cstackBANK0  003D
animation_green_arrow@i_239     cstackBANK0  003B
animation_green_arrow@i_240     cstackBANK0  0037
animation_green_arrow@i_241     cstackBANK0  0033
animation_green_arrow@i_242     cstackBANK0  002F
animation_green_arrow@i_243     cstackBANK0  002A
animation_green_arrow@i_244     cstackBANK0  0026
animation_green_arrow@i_245     cstackBANK0  0022
animation_green_arrow@row       cstackBANK0  0040
animation_red_arrow@ani_timer   cstackBANK0  002C
animation_red_arrow@col         cstackBANK0  003F
animation_red_arrow@i           cstackBANK0  0024
animation_red_arrow@i_213       cstackBANK0  0028
animation_red_arrow@i_214       cstackBANK0  002D
animation_red_arrow@i_215       cstackBANK0  0031
animation_red_arrow@i_216       cstackBANK0  0035
animation_red_arrow@i_217       cstackBANK0  0039
animation_red_arrow@i_218       cstackBANK0  003D
animation_red_arrow@i_220       cstackBANK0  003B
animation_red_arrow@i_221       cstackBANK0  0037
animation_red_arrow@i_222       cstackBANK0  0033
animation_red_arrow@i_223       cstackBANK0  002F
animation_red_arrow@i_224       cstackBANK0  002A
animation_red_arrow@i_225       cstackBANK0  0026
animation_red_arrow@i_226       cstackBANK0  0022
animation_red_arrow@row         cstackBANK0  0040
btemp                           (abs)        007E
end_of_initialization           cinit        0010
green_arrow@col                 cstackCOMMON 0077
green_arrow@i                   cstackCOMMON 0079
green_arrow@row                 cstackCOMMON 0078
input_data@num                  cstackCOMMON 0074
interrupt_function              intentry     0004
intlevel0                       functab      0000
intlevel1                       functab      0000
intlevel2                       functab      0000
intlevel3                       functab      0000
intlevel4                       functab      0000
intlevel5                       functab      0000
red_arrow@col                   cstackCOMMON 0077
red_arrow@i                     cstackCOMMON 0079
red_arrow@row                   cstackCOMMON 0078
reset_vec                       reset_vec    0000
saved_w                         (abs)        007E
start                           init         000B
start_initialization            cinit        000D
wtemp0                          (abs)        007E


MODULE INFORMATION

Module		Function		Class		Link	Load	Size
Main.c
		_green_arrow   		CODE           	0766	0000	139
		_animation_red_arrow		CODE           	0013	0000	1734
		_ISR           		CODE           	088F	0000	22
		_serial_clock_pulse		CODE           	08A5	0000	22
		_red_arrow     		CODE           	06D9	0000	141
		_initiate      		CODE           	08D1	0000	25
		_main          		CODE           	08EA	0000	46
		_input_low     		CODE           	07F1	0000	7
		_input_high    		CODE           	07F8	0000	7
		_animation_green_arrow		CODE           	0972	0000	1678
		_latch_output  		CODE           	08BB	0000	22
		_input_data    		CODE           	0918	0000	90

Main.c estimated size: 3933

shared
		__initialization		CODE           	000D	0000	3

shared estimated size: 3

