

Microchip MPLAB XC8 Assembler V2.32 build 20210201212658 
                                                                                               Sun Jun 26 15:51:34 2022

Microchip MPLAB XC8 C Compiler v2.32 (Free license) build 20210201212658 Og1 
     1                           	processor	16F690
     2                           	pagewidth 120
     3                           	opt	flic
     4                           	psect	cinit,global,class=CODE,merge=1,delta=2
     5                           	psect	bssBANK0,global,class=BANK0,space=1,delta=1,noexec
     6                           	psect	cstackCOMMON,global,class=COMMON,space=1,delta=1,noexec
     7                           	psect	cstackBANK0,global,class=BANK0,space=1,delta=1,noexec
     8                           	psect	maintext,global,class=CODE,split=1,delta=2
     9                           	psect	text1,local,class=CODE,merge=1,delta=2
    10                           	psect	text2,local,class=CODE,merge=1,delta=2
    11                           	psect	text3,local,class=CODE,merge=1,delta=2
    12                           	psect	text4,local,class=CODE,merge=1,delta=2
    13                           	psect	text5,local,class=CODE,merge=1,delta=2
    14                           	psect	text6,local,class=CODE,merge=1,delta=2
    15                           	psect	text7,local,class=CODE,merge=1,delta=2
    16                           	psect	text8,local,class=CODE,merge=1,delta=2
    17                           	psect	text9,local,class=CODE,merge=1,delta=2
    18                           	psect	text10,local,class=CODE,merge=1,delta=2
    19                           	psect	text11,local,class=CODE,merge=1,delta=2
    20                           	psect	intentry,global,class=CODE,delta=2
    21                           	psect	config,global,abs,ovrld,class=CONFIG,space=4,delta=2,noexec
    22                           	dabs	1,0x7E,2
    23  0000                     
    24                           ; Version 2.20
    25                           ; Generated 12/02/2020 GMT
    26                           ; 
    27                           ; Copyright © 2020, Microchip Technology Inc. and its subsidiaries ("Microchip")
    28                           ; All rights reserved.
    29                           ; 
    30                           ; This software is developed by Microchip Technology Inc. and its subsidiaries ("Microch
      +                          ip").
    31                           ; 
    32                           ; Redistribution and use in source and binary forms, with or without modification, are
    33                           ; permitted provided that the following conditions are met:
    34                           ; 
    35                           ;     1. Redistributions of source code must retain the above copyright notice, this lis
      +                          t of
    36                           ;        conditions and the following disclaimer.
    37                           ; 
    38                           ;     2. Redistributions in binary form must reproduce the above copyright notice, this 
      +                          list
    39                           ;        of conditions and the following disclaimer in the documentation and/or other
    40                           ;        materials provided with the distribution.
    41                           ; 
    42                           ;     3. Microchip's name may not be used to endorse or promote products derived from th
      +                          is
    43                           ;        software without specific prior written permission.
    44                           ; 
    45                           ; THIS SOFTWARE IS PROVIDED BY MICROCHIP "AS IS" AND ANY EXPRESS OR IMPLIED WARRANTIES,
    46                           ; INCLUDING, BUT NOT LIMITED TO, THE IMPLIED WARRANTIES OF MERCHANTABILITY AND FITNESS F
      +                          OR
    47                           ; PURPOSE ARE DISCLAIMED.  IN NO EVENT SHALL MICROCHIP BE LIABLE FOR ANY DIRECT, INDIREC
      +                          T,
    48                           ; INCIDENTAL, SPECIAL, EXEMPLARY, OR CONSEQUENTIAL DAMAGES (INCLUDING BUT NOT LIMITED TO
    49                           ; PROCUREMENT OF SUBSTITUTE GOODS OR SERVICES; LOSS OF USE, DATA OR PROFITS; OR BUSINESS
    50                           ; INTERRUPTION) HOWSOEVER CAUSED AND ON ANY THEORY OF LIABILITY, WHETHER IN CONTRACT, ST
      +                          RICT
    51                           ; LIABILITY, OR TORT (INCLUDING NEGLIGENCE OR OTHERWISE) ARISING IN ANY WAY OUT OF THE U
      +                          SE OF
    52                           ; THIS SOFTWARE, EVEN IF ADVISED OF THE POSSIBILITY OF SUCH DAMAGE.
    53                           ; 
    54                           ; 
    55                           ; Code-generator required, PIC16F690 Definitions
    56                           ; 
    57                           ; SFR Addresses
    58  0000                     	;# 
    59  0001                     	;# 
    60  0002                     	;# 
    61  0003                     	;# 
    62  0004                     	;# 
    63  0005                     	;# 
    64  0006                     	;# 
    65  0007                     	;# 
    66  000A                     	;# 
    67  000B                     	;# 
    68  000C                     	;# 
    69  000D                     	;# 
    70  000E                     	;# 
    71  000E                     	;# 
    72  000F                     	;# 
    73  0010                     	;# 
    74  0011                     	;# 
    75  0012                     	;# 
    76  0013                     	;# 
    77  0014                     	;# 
    78  0015                     	;# 
    79  0015                     	;# 
    80  0016                     	;# 
    81  0017                     	;# 
    82  0018                     	;# 
    83  0019                     	;# 
    84  001A                     	;# 
    85  001C                     	;# 
    86  001D                     	;# 
    87  001E                     	;# 
    88  001F                     	;# 
    89  0081                     	;# 
    90  0085                     	;# 
    91  0086                     	;# 
    92  0087                     	;# 
    93  008C                     	;# 
    94  008D                     	;# 
    95  008E                     	;# 
    96  008F                     	;# 
    97  0090                     	;# 
    98  0092                     	;# 
    99  0093                     	;# 
   100  0093                     	;# 
   101  0093                     	;# 
   102  0094                     	;# 
   103  0095                     	;# 
   104  0095                     	;# 
   105  0096                     	;# 
   106  0096                     	;# 
   107  0097                     	;# 
   108  0098                     	;# 
   109  0099                     	;# 
   110  009A                     	;# 
   111  009B                     	;# 
   112  009E                     	;# 
   113  009F                     	;# 
   114  010C                     	;# 
   115  010C                     	;# 
   116  010D                     	;# 
   117  010E                     	;# 
   118  010F                     	;# 
   119  0115                     	;# 
   120  0116                     	;# 
   121  0118                     	;# 
   122  0119                     	;# 
   123  011A                     	;# 
   124  011B                     	;# 
   125  011E                     	;# 
   126  011F                     	;# 
   127  018C                     	;# 
   128  018D                     	;# 
   129  019D                     	;# 
   130  019E                     	;# 
   131  0000                     	;# 
   132  0001                     	;# 
   133  0002                     	;# 
   134  0003                     	;# 
   135  0004                     	;# 
   136  0005                     	;# 
   137  0006                     	;# 
   138  0007                     	;# 
   139  000A                     	;# 
   140  000B                     	;# 
   141  000C                     	;# 
   142  000D                     	;# 
   143  000E                     	;# 
   144  000E                     	;# 
   145  000F                     	;# 
   146  0010                     	;# 
   147  0011                     	;# 
   148  0012                     	;# 
   149  0013                     	;# 
   150  0014                     	;# 
   151  0015                     	;# 
   152  0015                     	;# 
   153  0016                     	;# 
   154  0017                     	;# 
   155  0018                     	;# 
   156  0019                     	;# 
   157  001A                     	;# 
   158  001C                     	;# 
   159  001D                     	;# 
   160  001E                     	;# 
   161  001F                     	;# 
   162  0081                     	;# 
   163  0085                     	;# 
   164  0086                     	;# 
   165  0087                     	;# 
   166  008C                     	;# 
   167  008D                     	;# 
   168  008E                     	;# 
   169  008F                     	;# 
   170  0090                     	;# 
   171  0092                     	;# 
   172  0093                     	;# 
   173  0093                     	;# 
   174  0093                     	;# 
   175  0094                     	;# 
   176  0095                     	;# 
   177  0095                     	;# 
   178  0096                     	;# 
   179  0096                     	;# 
   180  0097                     	;# 
   181  0098                     	;# 
   182  0099                     	;# 
   183  009A                     	;# 
   184  009B                     	;# 
   185  009E                     	;# 
   186  009F                     	;# 
   187  010C                     	;# 
   188  010C                     	;# 
   189  010D                     	;# 
   190  010E                     	;# 
   191  010F                     	;# 
   192  0115                     	;# 
   193  0116                     	;# 
   194  0118                     	;# 
   195  0119                     	;# 
   196  011A                     	;# 
   197  011B                     	;# 
   198  011E                     	;# 
   199  011F                     	;# 
   200  018C                     	;# 
   201  018D                     	;# 
   202  019D                     	;# 
   203  019E                     	;# 
   204  000E                     _TMR1	set	14
   205  0006                     _PORTBbits	set	6
   206  000B                     _INTCON	set	11
   207  0010                     _T1CONbits	set	16
   208  0007                     _PORTCbits	set	7
   209  000C                     _PIR1bits	set	12
   210  008C                     _PIE1	set	140
   211  008F                     _OSCCON	set	143
   212  0086                     _TRISB	set	134
   213  0087                     _TRISC	set	135
   214                           
   215                           	psect	cinit
   216  000D                     start_initialization:	
   217                           ; #config settings
   218                           
   219  000D                     __initialization:
   220                           
   221                           ; Clear objects allocated to BANK0
   222  000D  1283               	bcf	3,5	;RP0=0, select bank0
   223  000E  1303               	bcf	3,6	;RP1=0, select bank0
   224  000F  01C4               	clrf	__pbssBANK0& (0+127)
   225  0010                     end_of_initialization:	
   226                           ;End of C runtime variable initialization code
   227                           
   228  0010                     __end_of__initialization:
   229  0010  0183               	clrf	3
   230  0011  158A  28EA         	ljmp	_main	;jump to C main() function
   231                           
   232                           	psect	bssBANK0
   233  0044                     __pbssBANK0:
   234  0044                     _timer_count:
   235  0044                     	ds	1
   236                           
   237                           	psect	cstackCOMMON
   238  0070                     __pcstackCOMMON:
   239  0070                     ?_initiate:
   240  0070                     ?_animation_green_arrow:	
   241                           ; 1 bytes @ 0x0
   242                           
   243  0070                     ?_animation_red_arrow:	
   244                           ; 1 bytes @ 0x0
   245                           
   246  0070                     ?_input_high:	
   247                           ; 1 bytes @ 0x0
   248                           
   249  0070                     ?_input_low:	
   250                           ; 1 bytes @ 0x0
   251                           
   252  0070                     ?_serial_clock_pulse:	
   253                           ; 1 bytes @ 0x0
   254                           
   255  0070                     ?_ISR:	
   256                           ; 1 bytes @ 0x0
   257                           
   258  0070                     ??_ISR:	
   259                           ; 1 bytes @ 0x0
   260                           
   261  0070                     ?_main:	
   262                           ; 1 bytes @ 0x0
   263                           
   264  0070                     ?_input_data:	
   265                           ; 1 bytes @ 0x0
   266                           
   267  0070                     ?_latch_output:	
   268                           ; 1 bytes @ 0x0
   269                           
   270  0070                     ?_green_arrow:	
   271                           ; 1 bytes @ 0x0
   272                           
   273  0070                     ?_red_arrow:	
   274                           ; 1 bytes @ 0x0
   275                           
   276                           
   277                           ; 1 bytes @ 0x0
   278  0070                     	ds	3
   279  0073                     ??_initiate:
   280  0073                     ??_serial_clock_pulse:	
   281                           ; 1 bytes @ 0x3
   282                           
   283  0073                     ??_latch_output:	
   284                           ; 1 bytes @ 0x3
   285                           
   286                           
   287                           ; 1 bytes @ 0x3
   288  0073                     	ds	1
   289  0074                     ??_input_high:
   290  0074                     ??_input_low:	
   291                           ; 1 bytes @ 0x4
   292                           
   293  0074                     ??_input_data:	
   294                           ; 1 bytes @ 0x4
   295                           
   296  0074                     input_data@num:	
   297                           ; 1 bytes @ 0x4
   298                           
   299                           
   300                           ; 1 bytes @ 0x4
   301  0074                     	ds	1
   302  0075                     ??_green_arrow:
   303  0075                     ??_red_arrow:	
   304                           ; 1 bytes @ 0x5
   305                           
   306                           
   307                           ; 1 bytes @ 0x5
   308  0075                     	ds	2
   309  0077                     green_arrow@col:
   310  0077                     red_arrow@col:	
   311                           ; 1 bytes @ 0x7
   312                           
   313                           
   314                           ; 1 bytes @ 0x7
   315  0077                     	ds	1
   316  0078                     green_arrow@row:
   317  0078                     red_arrow@row:	
   318                           ; 1 bytes @ 0x8
   319                           
   320                           
   321                           ; 1 bytes @ 0x8
   322  0078                     	ds	1
   323  0079                     green_arrow@i:
   324  0079                     red_arrow@i:	
   325                           ; 2 bytes @ 0x9
   326                           
   327                           
   328                           ; 2 bytes @ 0x9
   329  0079                     	ds	2
   330                           
   331                           	psect	cstackBANK0
   332  0020                     __pcstackBANK0:
   333  0020                     ??_animation_green_arrow:
   334  0020                     ??_animation_red_arrow:	
   335                           ; 1 bytes @ 0x0
   336                           
   337                           
   338                           ; 1 bytes @ 0x0
   339  0020                     	ds	2
   340  0022                     animation_red_arrow@i_226:
   341  0022                     animation_green_arrow@i_245:	
   342                           ; 2 bytes @ 0x2
   343                           
   344                           
   345                           ; 2 bytes @ 0x2
   346  0022                     	ds	2
   347  0024                     animation_red_arrow@i:
   348  0024                     animation_green_arrow@i:	
   349                           ; 2 bytes @ 0x4
   350                           
   351                           
   352                           ; 2 bytes @ 0x4
   353  0024                     	ds	2
   354  0026                     animation_red_arrow@i_225:
   355  0026                     animation_green_arrow@i_244:	
   356                           ; 2 bytes @ 0x6
   357                           
   358                           
   359                           ; 2 bytes @ 0x6
   360  0026                     	ds	2
   361  0028                     animation_red_arrow@i_213:
   362  0028                     animation_green_arrow@i_232:	
   363                           ; 2 bytes @ 0x8
   364                           
   365                           
   366                           ; 2 bytes @ 0x8
   367  0028                     	ds	2
   368  002A                     animation_red_arrow@i_224:
   369  002A                     animation_green_arrow@i_243:	
   370                           ; 2 bytes @ 0xA
   371                           
   372                           
   373                           ; 2 bytes @ 0xA
   374  002A                     	ds	2
   375  002C                     animation_red_arrow@ani_timer:
   376  002C                     animation_green_arrow@ani_timer:	
   377                           ; 1 bytes @ 0xC
   378                           
   379                           
   380                           ; 1 bytes @ 0xC
   381  002C                     	ds	1
   382  002D                     animation_red_arrow@i_214:
   383  002D                     animation_green_arrow@i_233:	
   384                           ; 2 bytes @ 0xD
   385                           
   386                           
   387                           ; 2 bytes @ 0xD
   388  002D                     	ds	2
   389  002F                     animation_red_arrow@i_223:
   390  002F                     animation_green_arrow@i_242:	
   391                           ; 2 bytes @ 0xF
   392                           
   393                           
   394                           ; 2 bytes @ 0xF
   395  002F                     	ds	2
   396  0031                     animation_red_arrow@i_215:
   397  0031                     animation_green_arrow@i_234:	
   398                           ; 2 bytes @ 0x11
   399                           
   400                           
   401                           ; 2 bytes @ 0x11
   402  0031                     	ds	2
   403  0033                     animation_red_arrow@i_222:
   404  0033                     animation_green_arrow@i_241:	
   405                           ; 2 bytes @ 0x13
   406                           
   407                           
   408                           ; 2 bytes @ 0x13
   409  0033                     	ds	2
   410  0035                     animation_red_arrow@i_216:
   411  0035                     animation_green_arrow@i_235:	
   412                           ; 2 bytes @ 0x15
   413                           
   414                           
   415                           ; 2 bytes @ 0x15
   416  0035                     	ds	2
   417  0037                     animation_red_arrow@i_221:
   418  0037                     animation_green_arrow@i_240:	
   419                           ; 2 bytes @ 0x17
   420                           
   421                           
   422                           ; 2 bytes @ 0x17
   423  0037                     	ds	2
   424  0039                     animation_red_arrow@i_217:
   425  0039                     animation_green_arrow@i_236:	
   426                           ; 2 bytes @ 0x19
   427                           
   428                           
   429                           ; 2 bytes @ 0x19
   430  0039                     	ds	2
   431  003B                     animation_red_arrow@i_220:
   432  003B                     animation_green_arrow@i_239:	
   433                           ; 2 bytes @ 0x1B
   434                           
   435                           
   436                           ; 2 bytes @ 0x1B
   437  003B                     	ds	2
   438  003D                     animation_red_arrow@i_218:
   439  003D                     animation_green_arrow@i_237:	
   440                           ; 2 bytes @ 0x1D
   441                           
   442                           
   443                           ; 2 bytes @ 0x1D
   444  003D                     	ds	2
   445  003F                     animation_red_arrow@col:
   446  003F                     animation_green_arrow@col:	
   447                           ; 1 bytes @ 0x1F
   448                           
   449                           
   450                           ; 1 bytes @ 0x1F
   451  003F                     	ds	1
   452  0040                     animation_red_arrow@row:
   453  0040                     animation_green_arrow@row:	
   454                           ; 1 bytes @ 0x20
   455                           
   456                           
   457                           ; 1 bytes @ 0x20
   458  0040                     	ds	1
   459  0041                     ??_main:
   460                           
   461                           ; 1 bytes @ 0x21
   462  0041                     	ds	3
   463                           
   464                           	psect	maintext
   465  08EA                     __pmaintext:	
   466 ;;
   467 ;;Main: autosize = 0, tempsize = 3, incstack = 0, save=0
   468 ;;
   469 ;; *************** function _main *****************
   470 ;; Defined at:
   471 ;;		line 50 in file "Main.c"
   472 ;; Parameters:    Size  Location     Type
   473 ;;		None
   474 ;; Auto vars:     Size  Location     Type
   475 ;;		None
   476 ;; Return value:  Size  Location     Type
   477 ;;                  1    wreg      void 
   478 ;; Registers used:
   479 ;;		wreg, status,2, status,0, btemp+1, pclath, cstack
   480 ;; Tracked objects:
   481 ;;		On entry : B00/0
   482 ;;		On exit  : 0/0
   483 ;;		Unchanged: 0/0
   484 ;; Data sizes:     COMMON   BANK0   BANK1   BANK2
   485 ;;      Params:         0       0       0       0
   486 ;;      Locals:         0       0       0       0
   487 ;;      Temps:          0       3       0       0
   488 ;;      Totals:         0       3       0       0
   489 ;;Total ram usage:        3 bytes
   490 ;; Hardware stack levels required when called: 6
   491 ;; This function calls:
   492 ;;		_animation_green_arrow
   493 ;;		_animation_red_arrow
   494 ;;		_initiate
   495 ;; This function is called by:
   496 ;;		Startup code after reset
   497 ;; This function uses a non-reentrant model
   498 ;;
   499                           
   500                           
   501                           ;psect for function _main
   502  08EA                     _main:
   503  08EA                     l3793:	
   504                           ;incstack = 0
   505                           ; Regs used in _main: [wreg+status,2+status,0+btemp+1+pclath+cstack]
   506                           
   507                           
   508                           ;Main.c: 51: initiate();
   509  08EA  158A  20D1  158A   	fcall	_initiate
   510  08ED                     l3795:
   511                           
   512                           ;Main.c: 56: animation_green_arrow();
   513  08ED  158A  2172  158A   	fcall	_animation_green_arrow
   514  08F0                     l3797:
   515                           
   516                           ;Main.c: 58: _delay((unsigned long)((1000)*(8000000/4000.0)));
   517  08F0  300B               	movlw	11
   518  08F1  1283               	bcf	3,5	;RP0=0, select bank0
   519  08F2  1303               	bcf	3,6	;RP1=0, select bank0
   520  08F3  00C3               	movwf	??_main+2
   521  08F4  3026               	movlw	38
   522  08F5  00C2               	movwf	??_main+1
   523  08F6  305D               	movlw	93
   524  08F7  00C1               	movwf	??_main
   525  08F8                     u5437:
   526  08F8  0BC1               	decfsz	??_main,f
   527  08F9  28F8               	goto	u5437
   528  08FA  0BC2               	decfsz	??_main+1,f
   529  08FB  28F8               	goto	u5437
   530  08FC  0BC3               	decfsz	??_main+2,f
   531  08FD  28F8               	goto	u5437
   532  08FE  0000               	nop
   533  08FF                     l3799:
   534                           
   535                           ;Main.c: 60: animation_red_arrow();
   536  08FF  118A  2013  158A   	fcall	_animation_red_arrow
   537  0902                     l3801:
   538                           
   539                           ;Main.c: 62: _delay((unsigned long)((1000)*(8000000/4000.0)));
   540  0902  300B               	movlw	11
   541  0903  1283               	bcf	3,5	;RP0=0, select bank0
   542  0904  1303               	bcf	3,6	;RP1=0, select bank0
   543  0905  00C3               	movwf	??_main+2
   544  0906  3026               	movlw	38
   545  0907  00C2               	movwf	??_main+1
   546  0908  305D               	movlw	93
   547  0909  00C1               	movwf	??_main
   548  090A                     u5447:
   549  090A  0BC1               	decfsz	??_main,f
   550  090B  290A               	goto	u5447
   551  090C  0BC2               	decfsz	??_main+1,f
   552  090D  290A               	goto	u5447
   553  090E  0BC3               	decfsz	??_main+2,f
   554  090F  290A               	goto	u5447
   555  0910  0000               	nop
   556  0911                     l3803:
   557                           
   558                           ;Main.c: 69: timer_count = 0;
   559  0911  1283               	bcf	3,5	;RP0=0, select bank0
   560  0912  1303               	bcf	3,6	;RP1=0, select bank0
   561  0913  01C4               	clrf	_timer_count
   562  0914                     l3805:
   563                           
   564                           ;Main.c: 79: timer_count = 0;
   565  0914  01C4               	clrf	_timer_count
   566  0915  28ED               	goto	l3795
   567  0916  118A  280B         	ljmp	start
   568  0918                     __end_of_main:
   569                           
   570                           	psect	text1
   571  08D1                     __ptext1:	
   572 ;; *************** function _initiate *****************
   573 ;; Defined at:
   574 ;;		line 83 in file "Main.c"
   575 ;; Parameters:    Size  Location     Type
   576 ;;		None
   577 ;; Auto vars:     Size  Location     Type
   578 ;;		None
   579 ;; Return value:  Size  Location     Type
   580 ;;                  1    wreg      void 
   581 ;; Registers used:
   582 ;;		wreg
   583 ;; Tracked objects:
   584 ;;		On entry : 0/0
   585 ;;		On exit  : 0/0
   586 ;;		Unchanged: 0/0
   587 ;; Data sizes:     COMMON   BANK0   BANK1   BANK2
   588 ;;      Params:         0       0       0       0
   589 ;;      Locals:         0       0       0       0
   590 ;;      Temps:          0       0       0       0
   591 ;;      Totals:         0       0       0       0
   592 ;;Total ram usage:        0 bytes
   593 ;; Hardware stack levels used: 1
   594 ;; Hardware stack levels required when called: 1
   595 ;; This function calls:
   596 ;;		Nothing
   597 ;; This function is called by:
   598 ;;		_main
   599 ;; This function uses a non-reentrant model
   600 ;;
   601                           
   602                           
   603                           ;psect for function _initiate
   604  08D1                     _initiate:
   605  08D1                     l2581:	
   606                           ;incstack = 0
   607                           ; Regs used in _initiate: [wreg]
   608                           
   609                           
   610                           ;Main.c: 85: TRISC = 0b00001111;
   611  08D1  300F               	movlw	15
   612  08D2  1683               	bsf	3,5	;RP0=1, select bank1
   613  08D3  1303               	bcf	3,6	;RP1=0, select bank1
   614  08D4  0087               	movwf	7	;volatile
   615                           
   616                           ;Main.c: 86: TRISB = 0b01100000;
   617  08D5  3060               	movlw	96
   618  08D6  0086               	movwf	6	;volatile
   619                           
   620                           ;Main.c: 87: OSCCON = 0b01110111;
   621  08D7  3077               	movlw	119
   622  08D8  008F               	movwf	15	;volatile
   623  08D9                     l2583:
   624                           
   625                           ;Main.c: 88: PORTCbits.RC6 = 0;
   626  08D9  1283               	bcf	3,5	;RP0=0, select bank0
   627  08DA  1303               	bcf	3,6	;RP1=0, select bank0
   628  08DB  1307               	bcf	7,6	;volatile
   629  08DC                     l2585:
   630                           
   631                           ;Main.c: 92: T1CONbits.TMR1ON = 1;
   632  08DC  1410               	bsf	16,0	;volatile
   633  08DD                     l2587:
   634                           
   635                           ;Main.c: 93: T1CONbits.T1CKPS1 = 1;
   636  08DD  1690               	bsf	16,5	;volatile
   637  08DE                     l2589:
   638                           
   639                           ;Main.c: 94: T1CONbits.T1CKPS0 = 1;
   640  08DE  1610               	bsf	16,4	;volatile
   641  08DF                     l2591:
   642                           
   643                           ;Main.c: 95: TMR1 = 63035;
   644  08DF  30F6               	movlw	246
   645  08E0  008F               	movwf	15	;volatile
   646  08E1  303B               	movlw	59
   647  08E2  008E               	movwf	14	;volatile
   648                           
   649                           ;Main.c: 136: INTCON = 0b11000000;
   650  08E3  30C0               	movlw	192
   651  08E4  008B               	movwf	11	;volatile
   652                           
   653                           ;Main.c: 147: PIE1 = 0b00110001;
   654  08E5  3031               	movlw	49
   655  08E6  1683               	bsf	3,5	;RP0=1, select bank1
   656  08E7  1303               	bcf	3,6	;RP1=0, select bank1
   657  08E8  008C               	movwf	12	;volatile
   658  08E9                     l53:
   659  08E9  0008               	return
   660  08EA                     __end_of_initiate:
   661                           
   662                           	psect	text2
   663  0013                     __ptext2:	
   664 ;; *************** function _animation_red_arrow *****************
   665 ;; Defined at:
   666 ;;		line 379 in file "Main.c"
   667 ;; Parameters:    Size  Location     Type
   668 ;;		None
   669 ;; Auto vars:     Size  Location     Type
   670 ;;  i               2    2[BANK0 ] int 
   671 ;;  i               2    6[BANK0 ] int 
   672 ;;  i               2   10[BANK0 ] int 
   673 ;;  i               2   15[BANK0 ] int 
   674 ;;  i               2   19[BANK0 ] int 
   675 ;;  i               2   23[BANK0 ] int 
   676 ;;  i               2   27[BANK0 ] int 
   677 ;;  i               2   29[BANK0 ] int 
   678 ;;  i               2   25[BANK0 ] int 
   679 ;;  i               2   21[BANK0 ] int 
   680 ;;  i               2   17[BANK0 ] int 
   681 ;;  i               2   13[BANK0 ] int 
   682 ;;  i               2    8[BANK0 ] int 
   683 ;;  i               2    4[BANK0 ] int 
   684 ;;  row             1   32[BANK0 ] unsigned char 
   685 ;;  col             1   31[BANK0 ] unsigned char 
   686 ;;  ani_timer       1   12[BANK0 ] unsigned char 
   687 ;; Return value:  Size  Location     Type
   688 ;;                  1    wreg      void 
   689 ;; Registers used:
   690 ;;		wreg, status,2, status,0, btemp+1, pclath, cstack
   691 ;; Tracked objects:
   692 ;;		On entry : 0/0
   693 ;;		On exit  : 0/0
   694 ;;		Unchanged: 0/0
   695 ;; Data sizes:     COMMON   BANK0   BANK1   BANK2
   696 ;;      Params:         0       0       0       0
   697 ;;      Locals:         0      31       0       0
   698 ;;      Temps:          0       2       0       0
   699 ;;      Totals:         0      33       0       0
   700 ;;Total ram usage:       33 bytes
   701 ;; Hardware stack levels used: 1
   702 ;; Hardware stack levels required when called: 5
   703 ;; This function calls:
   704 ;;		_input_data
   705 ;;		_latch_output
   706 ;;		_red_arrow
   707 ;; This function is called by:
   708 ;;		_main
   709 ;; This function uses a non-reentrant model
   710 ;;
   711                           
   712                           
   713                           ;psect for function _animation_red_arrow
   714  0013                     _animation_red_arrow:
   715  0013                     l3173:	
   716                           ;incstack = 0
   717                           ; Regs used in _animation_red_arrow: [wreg+status,2+status,0+btemp+1+pclath+cstack]
   718                           
   719  0013                     l3175:
   720                           
   721                           ;Main.c: 381: unsigned char col = 0;
   722  0013  1283               	bcf	3,5	;RP0=0, select bank0
   723  0014  1303               	bcf	3,6	;RP1=0, select bank0
   724  0015  01BF               	clrf	animation_red_arrow@col
   725  0016                     l3177:
   726                           
   727                           ;Main.c: 382: unsigned char ani_timer = 2;
   728  0016  3002               	movlw	2
   729  0017  00A0               	movwf	??_animation_red_arrow
   730  0018  0820               	movf	??_animation_red_arrow,w
   731  0019  00AC               	movwf	animation_red_arrow@ani_timer
   732                           
   733                           ;Main.c: 384: while (timer_count < ani_timer) {
   734  001A  282A               	goto	l118
   735  001B                     l3179:
   736  001B                     l3181:
   737                           
   738                           ;Main.c: 386: input_data(row);
   739  001B  3080               	movlw	128
   740  001C  158A  2118  118A   	fcall	_input_data
   741  001F                     l3183:
   742                           
   743                           ;Main.c: 387: input_data(0);
   744  001F  3000               	movlw	0
   745  0020  158A  2118  118A   	fcall	_input_data
   746  0023                     l3185:
   747                           
   748                           ;Main.c: 388: input_data(24);
   749  0023  3018               	movlw	24
   750  0024  158A  2118  118A   	fcall	_input_data
   751  0027                     l3187:
   752                           
   753                           ;Main.c: 389: latch_output();
   754  0027  158A  20BB  118A   	fcall	_latch_output
   755  002A                     l118:
   756  002A  1283               	bcf	3,5	;RP0=0, select bank0
   757  002B  1303               	bcf	3,6	;RP1=0, select bank0
   758  002C  082C               	movf	animation_red_arrow@ani_timer,w
   759  002D  0244               	subwf	_timer_count,w
   760  002E  1C03               	skipc
   761  002F  2831               	goto	u4211
   762  0030  2832               	goto	u4210
   763  0031                     u4211:
   764  0031  281B               	goto	l3179
   765  0032                     u4210:
   766  0032                     l3189:
   767                           
   768                           ;Main.c: 390: };Main.c: 391: timer_count = 0;
   769  0032  01C4               	clrf	_timer_count
   770                           
   771                           ;Main.c: 393: while (timer_count < ani_timer) {
   772  0033  288B               	goto	l3223
   773  0034                     l3191:
   774                           
   775                           ;Main.c: 394: for (int i = 0; i < 2; i++) {
   776  0034  01A4               	clrf	animation_red_arrow@i
   777  0035  01A5               	clrf	animation_red_arrow@i+1
   778  0036                     l3197:
   779                           
   780                           ;Main.c: 395: row = 0b10000000;
   781  0036  3080               	movlw	128
   782  0037  1283               	bcf	3,5	;RP0=0, select bank0
   783  0038  1303               	bcf	3,6	;RP1=0, select bank0
   784  0039  00A0               	movwf	??_animation_red_arrow
   785  003A  0820               	movf	??_animation_red_arrow,w
   786  003B  00C0               	movwf	animation_red_arrow@row
   787  003C                     l3199:
   788                           
   789                           ;Main.c: 398: if (i != 0) {
   790  003C  0824               	movf	animation_red_arrow@i,w
   791  003D  0425               	iorwf	animation_red_arrow@i+1,w
   792  003E  1903               	btfsc	3,2
   793  003F  2841               	goto	u4221
   794  0040  2842               	goto	u4220
   795  0041                     u4221:
   796  0041  284F               	goto	l3203
   797  0042                     u4220:
   798  0042                     l3201:
   799                           
   800                           ;Main.c: 399: row = (row >> i);
   801  0042  0840               	movf	animation_red_arrow@row,w
   802  0043  00A0               	movwf	??_animation_red_arrow
   803  0044  0A24               	incf	animation_red_arrow@i,w
   804  0045  2848               	goto	u4234
   805  0046                     u4235:
   806  0046  1003               	clrc
   807  0047  0CA0               	rrf	??_animation_red_arrow,f
   808  0048                     u4234:
   809  0048  3EFF               	addlw	-1
   810  0049  1D03               	skipz
   811  004A  2846               	goto	u4235
   812  004B  0820               	movf	??_animation_red_arrow,w
   813  004C  00A1               	movwf	??_animation_red_arrow+1
   814  004D  0821               	movf	??_animation_red_arrow+1,w
   815  004E  00C0               	movwf	animation_red_arrow@row
   816  004F                     l3203:
   817                           
   818                           ;Main.c: 400: };Main.c: 402: input_data(row);
   819  004F  0840               	movf	animation_red_arrow@row,w
   820  0050  158A  2118  118A   	fcall	_input_data
   821  0053                     l3205:
   822                           
   823                           ;Main.c: 404: if (i == 1) {
   824  0053  1283               	bcf	3,5	;RP0=0, select bank0
   825  0054  1303               	bcf	3,6	;RP1=0, select bank0
   826  0055  0324               	decf	animation_red_arrow@i,w
   827  0056  0425               	iorwf	animation_red_arrow@i+1,w
   828  0057  1D03               	btfss	3,2
   829  0058  285A               	goto	u4241
   830  0059  285B               	goto	u4240
   831  005A                     u4241:
   832  005A  285F               	goto	l3209
   833  005B                     u4240:
   834  005B                     l3207:
   835                           
   836                           ;Main.c: 406: col = 24;
   837  005B  3018               	movlw	24
   838  005C  00A0               	movwf	??_animation_red_arrow
   839  005D  0820               	movf	??_animation_red_arrow,w
   840  005E  00BF               	movwf	animation_red_arrow@col
   841  005F                     l3209:
   842                           
   843                           ;Main.c: 407: };Main.c: 409: if (i == 0) {
   844  005F  0824               	movf	animation_red_arrow@i,w
   845  0060  0425               	iorwf	animation_red_arrow@i+1,w
   846  0061  1D03               	btfss	3,2
   847  0062  2864               	goto	u4251
   848  0063  2865               	goto	u4250
   849  0064                     u4251:
   850  0064  2869               	goto	l3213
   851  0065                     u4250:
   852  0065                     l3211:
   853                           
   854                           ;Main.c: 411: col = 60;
   855  0065  303C               	movlw	60
   856  0066  00A0               	movwf	??_animation_red_arrow
   857  0067  0820               	movf	??_animation_red_arrow,w
   858  0068  00BF               	movwf	animation_red_arrow@col
   859  0069                     l3213:
   860                           
   861                           ;Main.c: 413: };Main.c: 414: input_data(0);
   862  0069  3000               	movlw	0
   863  006A  158A  2118  118A   	fcall	_input_data
   864  006D                     l3215:
   865                           
   866                           ;Main.c: 415: input_data(col);
   867  006D  1283               	bcf	3,5	;RP0=0, select bank0
   868  006E  1303               	bcf	3,6	;RP1=0, select bank0
   869  006F  083F               	movf	animation_red_arrow@col,w
   870  0070  158A  2118  118A   	fcall	_input_data
   871  0073                     l3217:
   872                           
   873                           ;Main.c: 416: latch_output();
   874  0073  158A  20BB  118A   	fcall	_latch_output
   875  0076                     l3219:
   876  0076  3001               	movlw	1
   877  0077  1283               	bcf	3,5	;RP0=0, select bank0
   878  0078  1303               	bcf	3,6	;RP1=0, select bank0
   879  0079  07A4               	addwf	animation_red_arrow@i,f
   880  007A  1803               	skipnc
   881  007B  0AA5               	incf	animation_red_arrow@i+1,f
   882  007C  3000               	movlw	0
   883  007D  07A5               	addwf	animation_red_arrow@i+1,f
   884  007E                     l3221:
   885  007E  0825               	movf	animation_red_arrow@i+1,w
   886  007F  3A80               	xorlw	128
   887  0080  00FF               	movwf	btemp+1
   888  0081  3080               	movlw	128
   889  0082  027F               	subwf	btemp+1,w
   890  0083  1D03               	skipz
   891  0084  2887               	goto	u4265
   892  0085  3002               	movlw	2
   893  0086  0224               	subwf	animation_red_arrow@i,w
   894  0087                     u4265:
   895  0087  1C03               	skipc
   896  0088  288A               	goto	u4261
   897  0089  288B               	goto	u4260
   898  008A                     u4261:
   899  008A  2836               	goto	l3197
   900  008B                     u4260:
   901  008B                     l3223:
   902  008B  1283               	bcf	3,5	;RP0=0, select bank0
   903  008C  1303               	bcf	3,6	;RP1=0, select bank0
   904  008D  082C               	movf	animation_red_arrow@ani_timer,w
   905  008E  0244               	subwf	_timer_count,w
   906  008F  1C03               	skipc
   907  0090  2892               	goto	u4271
   908  0091  2893               	goto	u4270
   909  0092                     u4271:
   910  0092  2834               	goto	l3191
   911  0093                     u4270:
   912  0093                     l3225:
   913                           
   914                           ;Main.c: 418: };Main.c: 420: };Main.c: 421: timer_count = 0;
   915  0093  01C4               	clrf	_timer_count
   916                           
   917                           ;Main.c: 424: while (timer_count < ani_timer) {
   918  0094  28F9               	goto	l3263
   919  0095                     l3227:
   920                           
   921                           ;Main.c: 425: for (int i = 0; i < 3; i++) {
   922  0095  01A8               	clrf	animation_red_arrow@i_213
   923  0096  01A9               	clrf	animation_red_arrow@i_213+1
   924  0097                     l3229:
   925  0097  0829               	movf	animation_red_arrow@i_213+1,w
   926  0098  3A80               	xorlw	128
   927  0099  00FF               	movwf	btemp+1
   928  009A  3080               	movlw	128
   929  009B  027F               	subwf	btemp+1,w
   930  009C  1D03               	skipz
   931  009D  28A0               	goto	u4285
   932  009E  3003               	movlw	3
   933  009F  0228               	subwf	animation_red_arrow@i_213,w
   934  00A0                     u4285:
   935  00A0  1C03               	skipc
   936  00A1  28A3               	goto	u4281
   937  00A2  28A4               	goto	u4280
   938  00A3                     u4281:
   939  00A3  28A5               	goto	l3233
   940  00A4                     u4280:
   941  00A4  28F9               	goto	l3263
   942  00A5                     l3233:
   943                           
   944                           ;Main.c: 426: row = 0b10000000;
   945  00A5  3080               	movlw	128
   946  00A6  1283               	bcf	3,5	;RP0=0, select bank0
   947  00A7  1303               	bcf	3,6	;RP1=0, select bank0
   948  00A8  00A0               	movwf	??_animation_red_arrow
   949  00A9  0820               	movf	??_animation_red_arrow,w
   950  00AA  00C0               	movwf	animation_red_arrow@row
   951  00AB                     l3235:
   952                           
   953                           ;Main.c: 428: if (i != 0) {
   954  00AB  0828               	movf	animation_red_arrow@i_213,w
   955  00AC  0429               	iorwf	animation_red_arrow@i_213+1,w
   956  00AD  1903               	btfsc	3,2
   957  00AE  28B0               	goto	u4291
   958  00AF  28B1               	goto	u4290
   959  00B0                     u4291:
   960  00B0  28BE               	goto	l3239
   961  00B1                     u4290:
   962  00B1                     l3237:
   963                           
   964                           ;Main.c: 429: row = (row >> i);
   965  00B1  0840               	movf	animation_red_arrow@row,w
   966  00B2  00A0               	movwf	??_animation_red_arrow
   967  00B3  0A28               	incf	animation_red_arrow@i_213,w
   968  00B4  28B7               	goto	u4304
   969  00B5                     u4305:
   970  00B5  1003               	clrc
   971  00B6  0CA0               	rrf	??_animation_red_arrow,f
   972  00B7                     u4304:
   973  00B7  3EFF               	addlw	-1
   974  00B8  1D03               	skipz
   975  00B9  28B5               	goto	u4305
   976  00BA  0820               	movf	??_animation_red_arrow,w
   977  00BB  00A1               	movwf	??_animation_red_arrow+1
   978  00BC  0821               	movf	??_animation_red_arrow+1,w
   979  00BD  00C0               	movwf	animation_red_arrow@row
   980  00BE                     l3239:
   981                           
   982                           ;Main.c: 430: };Main.c: 432: input_data(row);
   983  00BE  0840               	movf	animation_red_arrow@row,w
   984  00BF  158A  2118  118A   	fcall	_input_data
   985  00C2                     l3241:
   986                           
   987                           ;Main.c: 434: if (i == 2) {
   988  00C2  3002               	movlw	2
   989  00C3  1283               	bcf	3,5	;RP0=0, select bank0
   990  00C4  1303               	bcf	3,6	;RP1=0, select bank0
   991  00C5  0628               	xorwf	animation_red_arrow@i_213,w
   992  00C6  0429               	iorwf	animation_red_arrow@i_213+1,w
   993  00C7  1D03               	btfss	3,2
   994  00C8  28CA               	goto	u4311
   995  00C9  28CB               	goto	u4310
   996  00CA                     u4311:
   997  00CA  28CF               	goto	l3245
   998  00CB                     u4310:
   999  00CB                     l3243:
  1000                           
  1001                           ;Main.c: 436: col = 24;
  1002  00CB  3018               	movlw	24
  1003  00CC  00A0               	movwf	??_animation_red_arrow
  1004  00CD  0820               	movf	??_animation_red_arrow,w
  1005  00CE  00BF               	movwf	animation_red_arrow@col
  1006  00CF                     l3245:
  1007                           
  1008                           ;Main.c: 437: };Main.c: 439: if (i == 1) {
  1009  00CF  0328               	decf	animation_red_arrow@i_213,w
  1010  00D0  0429               	iorwf	animation_red_arrow@i_213+1,w
  1011  00D1  1D03               	btfss	3,2
  1012  00D2  28D4               	goto	u4321
  1013  00D3  28D5               	goto	u4320
  1014  00D4                     u4321:
  1015  00D4  28D9               	goto	l3249
  1016  00D5                     u4320:
  1017  00D5                     l3247:
  1018                           
  1019                           ;Main.c: 441: col = 60;
  1020  00D5  303C               	movlw	60
  1021  00D6  00A0               	movwf	??_animation_red_arrow
  1022  00D7  0820               	movf	??_animation_red_arrow,w
  1023  00D8  00BF               	movwf	animation_red_arrow@col
  1024  00D9                     l3249:
  1025                           
  1026                           ;Main.c: 443: };Main.c: 445: if (i == 0) {
  1027  00D9  0828               	movf	animation_red_arrow@i_213,w
  1028  00DA  0429               	iorwf	animation_red_arrow@i_213+1,w
  1029  00DB  1D03               	btfss	3,2
  1030  00DC  28DE               	goto	u4331
  1031  00DD  28DF               	goto	u4330
  1032  00DE                     u4331:
  1033  00DE  28E3               	goto	l3253
  1034  00DF                     u4330:
  1035  00DF                     l3251:
  1036                           
  1037                           ;Main.c: 447: col = 126;
  1038  00DF  307E               	movlw	126
  1039  00E0  00A0               	movwf	??_animation_red_arrow
  1040  00E1  0820               	movf	??_animation_red_arrow,w
  1041  00E2  00BF               	movwf	animation_red_arrow@col
  1042  00E3                     l3253:
  1043                           
  1044                           ;Main.c: 449: };Main.c: 450: input_data(0);
  1045  00E3  3000               	movlw	0
  1046  00E4  158A  2118  118A   	fcall	_input_data
  1047  00E7                     l3255:
  1048                           
  1049                           ;Main.c: 451: input_data(col);
  1050  00E7  1283               	bcf	3,5	;RP0=0, select bank0
  1051  00E8  1303               	bcf	3,6	;RP1=0, select bank0
  1052  00E9  083F               	movf	animation_red_arrow@col,w
  1053  00EA  158A  2118  118A   	fcall	_input_data
  1054  00ED                     l3257:
  1055                           
  1056                           ;Main.c: 452: latch_output();
  1057  00ED  158A  20BB  118A   	fcall	_latch_output
  1058  00F0                     l3259:
  1059  00F0  3001               	movlw	1
  1060  00F1  1283               	bcf	3,5	;RP0=0, select bank0
  1061  00F2  1303               	bcf	3,6	;RP1=0, select bank0
  1062  00F3  07A8               	addwf	animation_red_arrow@i_213,f
  1063  00F4  1803               	skipnc
  1064  00F5  0AA9               	incf	animation_red_arrow@i_213+1,f
  1065  00F6  3000               	movlw	0
  1066  00F7  07A9               	addwf	animation_red_arrow@i_213+1,f
  1067  00F8  2897               	goto	l3229
  1068  00F9                     l3263:
  1069  00F9  1283               	bcf	3,5	;RP0=0, select bank0
  1070  00FA  1303               	bcf	3,6	;RP1=0, select bank0
  1071  00FB  082C               	movf	animation_red_arrow@ani_timer,w
  1072  00FC  0244               	subwf	_timer_count,w
  1073  00FD  1C03               	skipc
  1074  00FE  2900               	goto	u4341
  1075  00FF  2901               	goto	u4340
  1076  0100                     u4341:
  1077  0100  2895               	goto	l3227
  1078  0101                     u4340:
  1079  0101                     l3265:
  1080                           
  1081                           ;Main.c: 453: };Main.c: 454: };Main.c: 455: timer_count = 0;
  1082  0101  01C4               	clrf	_timer_count
  1083                           
  1084                           ;Main.c: 458: while (timer_count < 4) {
  1085  0102  2972               	goto	l3307
  1086  0103                     l3267:
  1087                           
  1088                           ;Main.c: 459: for (int i = 0; i < 4; i++) {
  1089  0103  01AD               	clrf	animation_red_arrow@i_214
  1090  0104  01AE               	clrf	animation_red_arrow@i_214+1
  1091  0105                     l3269:
  1092  0105  082E               	movf	animation_red_arrow@i_214+1,w
  1093  0106  3A80               	xorlw	128
  1094  0107  00FF               	movwf	btemp+1
  1095  0108  3080               	movlw	128
  1096  0109  027F               	subwf	btemp+1,w
  1097  010A  1D03               	skipz
  1098  010B  290E               	goto	u4355
  1099  010C  3004               	movlw	4
  1100  010D  022D               	subwf	animation_red_arrow@i_214,w
  1101  010E                     u4355:
  1102  010E  1C03               	skipc
  1103  010F  2911               	goto	u4351
  1104  0110  2912               	goto	u4350
  1105  0111                     u4351:
  1106  0111  2913               	goto	l3273
  1107  0112                     u4350:
  1108  0112  2972               	goto	l3307
  1109  0113                     l3273:
  1110                           
  1111                           ;Main.c: 460: row = 0b10000000;
  1112  0113  3080               	movlw	128
  1113  0114  1283               	bcf	3,5	;RP0=0, select bank0
  1114  0115  1303               	bcf	3,6	;RP1=0, select bank0
  1115  0116  00A0               	movwf	??_animation_red_arrow
  1116  0117  0820               	movf	??_animation_red_arrow,w
  1117  0118  00C0               	movwf	animation_red_arrow@row
  1118  0119                     l3275:
  1119                           
  1120                           ;Main.c: 462: if (i != 0) {
  1121  0119  082D               	movf	animation_red_arrow@i_214,w
  1122  011A  042E               	iorwf	animation_red_arrow@i_214+1,w
  1123  011B  1903               	btfsc	3,2
  1124  011C  291E               	goto	u4361
  1125  011D  291F               	goto	u4360
  1126  011E                     u4361:
  1127  011E  292C               	goto	l3279
  1128  011F                     u4360:
  1129  011F                     l3277:
  1130                           
  1131                           ;Main.c: 463: row = (row >> i);
  1132  011F  0840               	movf	animation_red_arrow@row,w
  1133  0120  00A0               	movwf	??_animation_red_arrow
  1134  0121  0A2D               	incf	animation_red_arrow@i_214,w
  1135  0122  2925               	goto	u4374
  1136  0123                     u4375:
  1137  0123  1003               	clrc
  1138  0124  0CA0               	rrf	??_animation_red_arrow,f
  1139  0125                     u4374:
  1140  0125  3EFF               	addlw	-1
  1141  0126  1D03               	skipz
  1142  0127  2923               	goto	u4375
  1143  0128  0820               	movf	??_animation_red_arrow,w
  1144  0129  00A1               	movwf	??_animation_red_arrow+1
  1145  012A  0821               	movf	??_animation_red_arrow+1,w
  1146  012B  00C0               	movwf	animation_red_arrow@row
  1147  012C                     l3279:
  1148                           
  1149                           ;Main.c: 464: };Main.c: 466: input_data(row);
  1150  012C  0840               	movf	animation_red_arrow@row,w
  1151  012D  158A  2118  118A   	fcall	_input_data
  1152  0130                     l3281:
  1153                           
  1154                           ;Main.c: 468: if (i == 3) {
  1155  0130  3003               	movlw	3
  1156  0131  1283               	bcf	3,5	;RP0=0, select bank0
  1157  0132  1303               	bcf	3,6	;RP1=0, select bank0
  1158  0133  062D               	xorwf	animation_red_arrow@i_214,w
  1159  0134  042E               	iorwf	animation_red_arrow@i_214+1,w
  1160  0135  1D03               	btfss	3,2
  1161  0136  2938               	goto	u4381
  1162  0137  2939               	goto	u4380
  1163  0138                     u4381:
  1164  0138  293D               	goto	l3285
  1165  0139                     u4380:
  1166  0139                     l3283:
  1167                           
  1168                           ;Main.c: 470: col = 24;
  1169  0139  3018               	movlw	24
  1170  013A  00A0               	movwf	??_animation_red_arrow
  1171  013B  0820               	movf	??_animation_red_arrow,w
  1172  013C  00BF               	movwf	animation_red_arrow@col
  1173  013D                     l3285:
  1174                           
  1175                           ;Main.c: 471: };Main.c: 473: if (i == 2) {
  1176  013D  3002               	movlw	2
  1177  013E  062D               	xorwf	animation_red_arrow@i_214,w
  1178  013F  042E               	iorwf	animation_red_arrow@i_214+1,w
  1179  0140  1D03               	btfss	3,2
  1180  0141  2943               	goto	u4391
  1181  0142  2944               	goto	u4390
  1182  0143                     u4391:
  1183  0143  2948               	goto	l3289
  1184  0144                     u4390:
  1185  0144                     l3287:
  1186                           
  1187                           ;Main.c: 475: col = 60;
  1188  0144  303C               	movlw	60
  1189  0145  00A0               	movwf	??_animation_red_arrow
  1190  0146  0820               	movf	??_animation_red_arrow,w
  1191  0147  00BF               	movwf	animation_red_arrow@col
  1192  0148                     l3289:
  1193                           
  1194                           ;Main.c: 477: };Main.c: 479: if (i == 1) {
  1195  0148  032D               	decf	animation_red_arrow@i_214,w
  1196  0149  042E               	iorwf	animation_red_arrow@i_214+1,w
  1197  014A  1D03               	btfss	3,2
  1198  014B  294D               	goto	u4401
  1199  014C  294E               	goto	u4400
  1200  014D                     u4401:
  1201  014D  2952               	goto	l3293
  1202  014E                     u4400:
  1203  014E                     l3291:
  1204                           
  1205                           ;Main.c: 481: col = 126;
  1206  014E  307E               	movlw	126
  1207  014F  00A0               	movwf	??_animation_red_arrow
  1208  0150  0820               	movf	??_animation_red_arrow,w
  1209  0151  00BF               	movwf	animation_red_arrow@col
  1210  0152                     l3293:
  1211                           
  1212                           ;Main.c: 483: };Main.c: 484: if (i == 0) {
  1213  0152  082D               	movf	animation_red_arrow@i_214,w
  1214  0153  042E               	iorwf	animation_red_arrow@i_214+1,w
  1215  0154  1D03               	btfss	3,2
  1216  0155  2957               	goto	u4411
  1217  0156  2958               	goto	u4410
  1218  0157                     u4411:
  1219  0157  295C               	goto	l3297
  1220  0158                     u4410:
  1221  0158                     l3295:
  1222                           
  1223                           ;Main.c: 486: col = 255;
  1224  0158  30FF               	movlw	255
  1225  0159  00A0               	movwf	??_animation_red_arrow
  1226  015A  0820               	movf	??_animation_red_arrow,w
  1227  015B  00BF               	movwf	animation_red_arrow@col
  1228  015C                     l3297:
  1229                           
  1230                           ;Main.c: 488: };Main.c: 489: input_data(0);
  1231  015C  3000               	movlw	0
  1232  015D  158A  2118  118A   	fcall	_input_data
  1233  0160                     l3299:
  1234                           
  1235                           ;Main.c: 490: input_data(col);
  1236  0160  1283               	bcf	3,5	;RP0=0, select bank0
  1237  0161  1303               	bcf	3,6	;RP1=0, select bank0
  1238  0162  083F               	movf	animation_red_arrow@col,w
  1239  0163  158A  2118  118A   	fcall	_input_data
  1240  0166                     l3301:
  1241                           
  1242                           ;Main.c: 491: latch_output();
  1243  0166  158A  20BB  118A   	fcall	_latch_output
  1244  0169                     l3303:
  1245  0169  3001               	movlw	1
  1246  016A  1283               	bcf	3,5	;RP0=0, select bank0
  1247  016B  1303               	bcf	3,6	;RP1=0, select bank0
  1248  016C  07AD               	addwf	animation_red_arrow@i_214,f
  1249  016D  1803               	skipnc
  1250  016E  0AAE               	incf	animation_red_arrow@i_214+1,f
  1251  016F  3000               	movlw	0
  1252  0170  07AE               	addwf	animation_red_arrow@i_214+1,f
  1253  0171  2905               	goto	l3269
  1254  0172                     l3307:
  1255  0172  3004               	movlw	4
  1256  0173  1283               	bcf	3,5	;RP0=0, select bank0
  1257  0174  1303               	bcf	3,6	;RP1=0, select bank0
  1258  0175  0244               	subwf	_timer_count,w
  1259  0176  1C03               	skipc
  1260  0177  2979               	goto	u4421
  1261  0178  297A               	goto	u4420
  1262  0179                     u4421:
  1263  0179  2903               	goto	l3267
  1264  017A                     u4420:
  1265  017A                     l3309:
  1266                           
  1267                           ;Main.c: 492: };Main.c: 493: };Main.c: 494: timer_count = 0;
  1268  017A  01C4               	clrf	_timer_count
  1269                           
  1270                           ;Main.c: 497: while (timer_count < 4) {
  1271  017B  29F2               	goto	l3353
  1272  017C                     l3311:
  1273                           
  1274                           ;Main.c: 498: for (int i = 0; i < 5; i++) {
  1275  017C  01B1               	clrf	animation_red_arrow@i_215
  1276  017D  01B2               	clrf	animation_red_arrow@i_215+1
  1277  017E                     l3313:
  1278  017E  0832               	movf	animation_red_arrow@i_215+1,w
  1279  017F  3A80               	xorlw	128
  1280  0180  00FF               	movwf	btemp+1
  1281  0181  3080               	movlw	128
  1282  0182  027F               	subwf	btemp+1,w
  1283  0183  1D03               	skipz
  1284  0184  2987               	goto	u4435
  1285  0185  3005               	movlw	5
  1286  0186  0231               	subwf	animation_red_arrow@i_215,w
  1287  0187                     u4435:
  1288  0187  1C03               	skipc
  1289  0188  298A               	goto	u4431
  1290  0189  298B               	goto	u4430
  1291  018A                     u4431:
  1292  018A  298C               	goto	l3317
  1293  018B                     u4430:
  1294  018B  29F2               	goto	l3353
  1295  018C                     l3317:
  1296                           
  1297                           ;Main.c: 499: row = 0b10000000;
  1298  018C  3080               	movlw	128
  1299  018D  1283               	bcf	3,5	;RP0=0, select bank0
  1300  018E  1303               	bcf	3,6	;RP1=0, select bank0
  1301  018F  00A0               	movwf	??_animation_red_arrow
  1302  0190  0820               	movf	??_animation_red_arrow,w
  1303  0191  00C0               	movwf	animation_red_arrow@row
  1304  0192                     l3319:
  1305                           
  1306                           ;Main.c: 501: if (i != 0) {
  1307  0192  0831               	movf	animation_red_arrow@i_215,w
  1308  0193  0432               	iorwf	animation_red_arrow@i_215+1,w
  1309  0194  1903               	btfsc	3,2
  1310  0195  2997               	goto	u4441
  1311  0196  2998               	goto	u4440
  1312  0197                     u4441:
  1313  0197  29A5               	goto	l3323
  1314  0198                     u4440:
  1315  0198                     l3321:
  1316                           
  1317                           ;Main.c: 502: row = (row >> i);
  1318  0198  0840               	movf	animation_red_arrow@row,w
  1319  0199  00A0               	movwf	??_animation_red_arrow
  1320  019A  0A31               	incf	animation_red_arrow@i_215,w
  1321  019B  299E               	goto	u4454
  1322  019C                     u4455:
  1323  019C  1003               	clrc
  1324  019D  0CA0               	rrf	??_animation_red_arrow,f
  1325  019E                     u4454:
  1326  019E  3EFF               	addlw	-1
  1327  019F  1D03               	skipz
  1328  01A0  299C               	goto	u4455
  1329  01A1  0820               	movf	??_animation_red_arrow,w
  1330  01A2  00A1               	movwf	??_animation_red_arrow+1
  1331  01A3  0821               	movf	??_animation_red_arrow+1,w
  1332  01A4  00C0               	movwf	animation_red_arrow@row
  1333  01A5                     l3323:
  1334                           
  1335                           ;Main.c: 503: };Main.c: 505: input_data(row);
  1336  01A5  0840               	movf	animation_red_arrow@row,w
  1337  01A6  158A  2118  118A   	fcall	_input_data
  1338  01A9                     l3325:
  1339                           
  1340                           ;Main.c: 507: if (i == 4) {
  1341  01A9  3004               	movlw	4
  1342  01AA  1283               	bcf	3,5	;RP0=0, select bank0
  1343  01AB  1303               	bcf	3,6	;RP1=0, select bank0
  1344  01AC  0631               	xorwf	animation_red_arrow@i_215,w
  1345  01AD  0432               	iorwf	animation_red_arrow@i_215+1,w
  1346  01AE  1D03               	btfss	3,2
  1347  01AF  29B1               	goto	u4461
  1348  01B0  29B2               	goto	u4460
  1349  01B1                     u4461:
  1350  01B1  29B6               	goto	l3329
  1351  01B2                     u4460:
  1352  01B2                     l3327:
  1353                           
  1354                           ;Main.c: 509: col = 24;
  1355  01B2  3018               	movlw	24
  1356  01B3  00A0               	movwf	??_animation_red_arrow
  1357  01B4  0820               	movf	??_animation_red_arrow,w
  1358  01B5  00BF               	movwf	animation_red_arrow@col
  1359  01B6                     l3329:
  1360                           
  1361                           ;Main.c: 510: };Main.c: 512: if (i == 3 || i == 0) {
  1362  01B6  3003               	movlw	3
  1363  01B7  0631               	xorwf	animation_red_arrow@i_215,w
  1364  01B8  0432               	iorwf	animation_red_arrow@i_215+1,w
  1365  01B9  1903               	btfsc	3,2
  1366  01BA  29BC               	goto	u4471
  1367  01BB  29BD               	goto	u4470
  1368  01BC                     u4471:
  1369  01BC  29C3               	goto	l3333
  1370  01BD                     u4470:
  1371  01BD                     l3331:
  1372  01BD  0831               	movf	animation_red_arrow@i_215,w
  1373  01BE  0432               	iorwf	animation_red_arrow@i_215+1,w
  1374  01BF  1D03               	btfss	3,2
  1375  01C0  29C2               	goto	u4481
  1376  01C1  29C3               	goto	u4480
  1377  01C2                     u4481:
  1378  01C2  29C7               	goto	l3335
  1379  01C3                     u4480:
  1380  01C3                     l3333:
  1381                           
  1382                           ;Main.c: 514: col = 60;
  1383  01C3  303C               	movlw	60
  1384  01C4  00A0               	movwf	??_animation_red_arrow
  1385  01C5  0820               	movf	??_animation_red_arrow,w
  1386  01C6  00BF               	movwf	animation_red_arrow@col
  1387  01C7                     l3335:
  1388                           
  1389                           ;Main.c: 516: };Main.c: 518: if (i == 2) {
  1390  01C7  3002               	movlw	2
  1391  01C8  0631               	xorwf	animation_red_arrow@i_215,w
  1392  01C9  0432               	iorwf	animation_red_arrow@i_215+1,w
  1393  01CA  1D03               	btfss	3,2
  1394  01CB  29CD               	goto	u4491
  1395  01CC  29CE               	goto	u4490
  1396  01CD                     u4491:
  1397  01CD  29D2               	goto	l3339
  1398  01CE                     u4490:
  1399  01CE                     l3337:
  1400                           
  1401                           ;Main.c: 520: col = 126;
  1402  01CE  307E               	movlw	126
  1403  01CF  00A0               	movwf	??_animation_red_arrow
  1404  01D0  0820               	movf	??_animation_red_arrow,w
  1405  01D1  00BF               	movwf	animation_red_arrow@col
  1406  01D2                     l3339:
  1407                           
  1408                           ;Main.c: 522: };Main.c: 523: if (i == 1) {
  1409  01D2  0331               	decf	animation_red_arrow@i_215,w
  1410  01D3  0432               	iorwf	animation_red_arrow@i_215+1,w
  1411  01D4  1D03               	btfss	3,2
  1412  01D5  29D7               	goto	u4501
  1413  01D6  29D8               	goto	u4500
  1414  01D7                     u4501:
  1415  01D7  29DC               	goto	l3343
  1416  01D8                     u4500:
  1417  01D8                     l3341:
  1418                           
  1419                           ;Main.c: 525: col = 255;
  1420  01D8  30FF               	movlw	255
  1421  01D9  00A0               	movwf	??_animation_red_arrow
  1422  01DA  0820               	movf	??_animation_red_arrow,w
  1423  01DB  00BF               	movwf	animation_red_arrow@col
  1424  01DC                     l3343:
  1425                           
  1426                           ;Main.c: 527: };Main.c: 528: input_data(0);
  1427  01DC  3000               	movlw	0
  1428  01DD  158A  2118  118A   	fcall	_input_data
  1429  01E0                     l3345:
  1430                           
  1431                           ;Main.c: 529: input_data(col);
  1432  01E0  1283               	bcf	3,5	;RP0=0, select bank0
  1433  01E1  1303               	bcf	3,6	;RP1=0, select bank0
  1434  01E2  083F               	movf	animation_red_arrow@col,w
  1435  01E3  158A  2118  118A   	fcall	_input_data
  1436  01E6                     l3347:
  1437                           
  1438                           ;Main.c: 530: latch_output();
  1439  01E6  158A  20BB  118A   	fcall	_latch_output
  1440  01E9                     l3349:
  1441  01E9  3001               	movlw	1
  1442  01EA  1283               	bcf	3,5	;RP0=0, select bank0
  1443  01EB  1303               	bcf	3,6	;RP1=0, select bank0
  1444  01EC  07B1               	addwf	animation_red_arrow@i_215,f
  1445  01ED  1803               	skipnc
  1446  01EE  0AB2               	incf	animation_red_arrow@i_215+1,f
  1447  01EF  3000               	movlw	0
  1448  01F0  07B2               	addwf	animation_red_arrow@i_215+1,f
  1449  01F1  297E               	goto	l3313
  1450  01F2                     l3353:
  1451  01F2  3004               	movlw	4
  1452  01F3  1283               	bcf	3,5	;RP0=0, select bank0
  1453  01F4  1303               	bcf	3,6	;RP1=0, select bank0
  1454  01F5  0244               	subwf	_timer_count,w
  1455  01F6  1C03               	skipc
  1456  01F7  29F9               	goto	u4511
  1457  01F8  29FA               	goto	u4510
  1458  01F9                     u4511:
  1459  01F9  297C               	goto	l3311
  1460  01FA                     u4510:
  1461  01FA                     l3355:
  1462                           
  1463                           ;Main.c: 531: };Main.c: 532: };Main.c: 533: timer_count = 0;
  1464  01FA  01C4               	clrf	_timer_count
  1465                           
  1466                           ;Main.c: 536: while (timer_count < 4) {
  1467  01FB  2A79               	goto	l3401
  1468  01FC                     l3357:
  1469                           
  1470                           ;Main.c: 537: for (int i = 0; i < 6; i++) {
  1471  01FC  01B5               	clrf	animation_red_arrow@i_216
  1472  01FD  01B6               	clrf	animation_red_arrow@i_216+1
  1473  01FE                     l3359:
  1474  01FE  0836               	movf	animation_red_arrow@i_216+1,w
  1475  01FF  3A80               	xorlw	128
  1476  0200  00FF               	movwf	btemp+1
  1477  0201  3080               	movlw	128
  1478  0202  027F               	subwf	btemp+1,w
  1479  0203  1D03               	skipz
  1480  0204  2A07               	goto	u4525
  1481  0205  3006               	movlw	6
  1482  0206  0235               	subwf	animation_red_arrow@i_216,w
  1483  0207                     u4525:
  1484  0207  1C03               	skipc
  1485  0208  2A0A               	goto	u4521
  1486  0209  2A0B               	goto	u4520
  1487  020A                     u4521:
  1488  020A  2A0C               	goto	l3363
  1489  020B                     u4520:
  1490  020B  2A79               	goto	l3401
  1491  020C                     l3363:
  1492                           
  1493                           ;Main.c: 538: row = 0b10000000;
  1494  020C  3080               	movlw	128
  1495  020D  1283               	bcf	3,5	;RP0=0, select bank0
  1496  020E  1303               	bcf	3,6	;RP1=0, select bank0
  1497  020F  00A0               	movwf	??_animation_red_arrow
  1498  0210  0820               	movf	??_animation_red_arrow,w
  1499  0211  00C0               	movwf	animation_red_arrow@row
  1500  0212                     l3365:
  1501                           
  1502                           ;Main.c: 540: if (i != 0) {
  1503  0212  0835               	movf	animation_red_arrow@i_216,w
  1504  0213  0436               	iorwf	animation_red_arrow@i_216+1,w
  1505  0214  1903               	btfsc	3,2
  1506  0215  2A17               	goto	u4531
  1507  0216  2A18               	goto	u4530
  1508  0217                     u4531:
  1509  0217  2A25               	goto	l3369
  1510  0218                     u4530:
  1511  0218                     l3367:
  1512                           
  1513                           ;Main.c: 541: row = (row >> i);
  1514  0218  0840               	movf	animation_red_arrow@row,w
  1515  0219  00A0               	movwf	??_animation_red_arrow
  1516  021A  0A35               	incf	animation_red_arrow@i_216,w
  1517  021B  2A1E               	goto	u4544
  1518  021C                     u4545:
  1519  021C  1003               	clrc
  1520  021D  0CA0               	rrf	??_animation_red_arrow,f
  1521  021E                     u4544:
  1522  021E  3EFF               	addlw	-1
  1523  021F  1D03               	skipz
  1524  0220  2A1C               	goto	u4545
  1525  0221  0820               	movf	??_animation_red_arrow,w
  1526  0222  00A1               	movwf	??_animation_red_arrow+1
  1527  0223  0821               	movf	??_animation_red_arrow+1,w
  1528  0224  00C0               	movwf	animation_red_arrow@row
  1529  0225                     l3369:
  1530                           
  1531                           ;Main.c: 542: };Main.c: 544: input_data(row);
  1532  0225  0840               	movf	animation_red_arrow@row,w
  1533  0226  158A  2118  118A   	fcall	_input_data
  1534  0229                     l3371:
  1535                           
  1536                           ;Main.c: 546: if (i == 5) {
  1537  0229  3005               	movlw	5
  1538  022A  1283               	bcf	3,5	;RP0=0, select bank0
  1539  022B  1303               	bcf	3,6	;RP1=0, select bank0
  1540  022C  0635               	xorwf	animation_red_arrow@i_216,w
  1541  022D  0436               	iorwf	animation_red_arrow@i_216+1,w
  1542  022E  1D03               	btfss	3,2
  1543  022F  2A31               	goto	u4551
  1544  0230  2A32               	goto	u4550
  1545  0231                     u4551:
  1546  0231  2A36               	goto	l3375
  1547  0232                     u4550:
  1548  0232                     l3373:
  1549                           
  1550                           ;Main.c: 548: col = 24;
  1551  0232  3018               	movlw	24
  1552  0233  00A0               	movwf	??_animation_red_arrow
  1553  0234  0820               	movf	??_animation_red_arrow,w
  1554  0235  00BF               	movwf	animation_red_arrow@col
  1555  0236                     l3375:
  1556                           
  1557                           ;Main.c: 549: };Main.c: 551: if (i == 4 || i == 0 || i == 1) {
  1558  0236  3004               	movlw	4
  1559  0237  0635               	xorwf	animation_red_arrow@i_216,w
  1560  0238  0436               	iorwf	animation_red_arrow@i_216+1,w
  1561  0239  1903               	btfsc	3,2
  1562  023A  2A3C               	goto	u4561
  1563  023B  2A3D               	goto	u4560
  1564  023C                     u4561:
  1565  023C  2A49               	goto	l3381
  1566  023D                     u4560:
  1567  023D                     l3377:
  1568  023D  0835               	movf	animation_red_arrow@i_216,w
  1569  023E  0436               	iorwf	animation_red_arrow@i_216+1,w
  1570  023F  1903               	btfsc	3,2
  1571  0240  2A42               	goto	u4571
  1572  0241  2A43               	goto	u4570
  1573  0242                     u4571:
  1574  0242  2A49               	goto	l3381
  1575  0243                     u4570:
  1576  0243                     l3379:
  1577  0243  0335               	decf	animation_red_arrow@i_216,w
  1578  0244  0436               	iorwf	animation_red_arrow@i_216+1,w
  1579  0245  1D03               	btfss	3,2
  1580  0246  2A48               	goto	u4581
  1581  0247  2A49               	goto	u4580
  1582  0248                     u4581:
  1583  0248  2A4D               	goto	l3383
  1584  0249                     u4580:
  1585  0249                     l3381:
  1586                           
  1587                           ;Main.c: 553: col = 60;
  1588  0249  303C               	movlw	60
  1589  024A  00A0               	movwf	??_animation_red_arrow
  1590  024B  0820               	movf	??_animation_red_arrow,w
  1591  024C  00BF               	movwf	animation_red_arrow@col
  1592  024D                     l3383:
  1593                           
  1594                           ;Main.c: 555: };Main.c: 557: if (i == 3) {
  1595  024D  3003               	movlw	3
  1596  024E  0635               	xorwf	animation_red_arrow@i_216,w
  1597  024F  0436               	iorwf	animation_red_arrow@i_216+1,w
  1598  0250  1D03               	btfss	3,2
  1599  0251  2A53               	goto	u4591
  1600  0252  2A54               	goto	u4590
  1601  0253                     u4591:
  1602  0253  2A58               	goto	l3387
  1603  0254                     u4590:
  1604  0254                     l3385:
  1605                           
  1606                           ;Main.c: 559: col = 126;
  1607  0254  307E               	movlw	126
  1608  0255  00A0               	movwf	??_animation_red_arrow
  1609  0256  0820               	movf	??_animation_red_arrow,w
  1610  0257  00BF               	movwf	animation_red_arrow@col
  1611  0258                     l3387:
  1612                           
  1613                           ;Main.c: 561: };Main.c: 562: if (i == 2) {
  1614  0258  3002               	movlw	2
  1615  0259  0635               	xorwf	animation_red_arrow@i_216,w
  1616  025A  0436               	iorwf	animation_red_arrow@i_216+1,w
  1617  025B  1D03               	btfss	3,2
  1618  025C  2A5E               	goto	u4601
  1619  025D  2A5F               	goto	u4600
  1620  025E                     u4601:
  1621  025E  2A63               	goto	l3391
  1622  025F                     u4600:
  1623  025F                     l3389:
  1624                           
  1625                           ;Main.c: 564: col = 255;
  1626  025F  30FF               	movlw	255
  1627  0260  00A0               	movwf	??_animation_red_arrow
  1628  0261  0820               	movf	??_animation_red_arrow,w
  1629  0262  00BF               	movwf	animation_red_arrow@col
  1630  0263                     l3391:
  1631                           
  1632                           ;Main.c: 566: };Main.c: 567: input_data(0);
  1633  0263  3000               	movlw	0
  1634  0264  158A  2118  118A   	fcall	_input_data
  1635  0267                     l3393:
  1636                           
  1637                           ;Main.c: 568: input_data(col);
  1638  0267  1283               	bcf	3,5	;RP0=0, select bank0
  1639  0268  1303               	bcf	3,6	;RP1=0, select bank0
  1640  0269  083F               	movf	animation_red_arrow@col,w
  1641  026A  158A  2118  118A   	fcall	_input_data
  1642  026D                     l3395:
  1643                           
  1644                           ;Main.c: 569: latch_output();
  1645  026D  158A  20BB  118A   	fcall	_latch_output
  1646  0270                     l3397:
  1647  0270  3001               	movlw	1
  1648  0271  1283               	bcf	3,5	;RP0=0, select bank0
  1649  0272  1303               	bcf	3,6	;RP1=0, select bank0
  1650  0273  07B5               	addwf	animation_red_arrow@i_216,f
  1651  0274  1803               	skipnc
  1652  0275  0AB6               	incf	animation_red_arrow@i_216+1,f
  1653  0276  3000               	movlw	0
  1654  0277  07B6               	addwf	animation_red_arrow@i_216+1,f
  1655  0278  29FE               	goto	l3359
  1656  0279                     l3401:
  1657  0279  3004               	movlw	4
  1658  027A  1283               	bcf	3,5	;RP0=0, select bank0
  1659  027B  1303               	bcf	3,6	;RP1=0, select bank0
  1660  027C  0244               	subwf	_timer_count,w
  1661  027D  1C03               	skipc
  1662  027E  2A80               	goto	u4611
  1663  027F  2A81               	goto	u4610
  1664  0280                     u4611:
  1665  0280  29FC               	goto	l3357
  1666  0281                     u4610:
  1667  0281                     l3403:
  1668                           
  1669                           ;Main.c: 570: };Main.c: 571: };Main.c: 572: timer_count = 0;
  1670  0281  01C4               	clrf	_timer_count
  1671                           
  1672                           ;Main.c: 575: while (timer_count < 5) {
  1673  0282  2B07               	goto	l3451
  1674  0283                     l3405:
  1675                           
  1676                           ;Main.c: 576: for (int i = 0; i < 7; i++) {
  1677  0283  01B9               	clrf	animation_red_arrow@i_217
  1678  0284  01BA               	clrf	animation_red_arrow@i_217+1
  1679  0285                     l3407:
  1680  0285  083A               	movf	animation_red_arrow@i_217+1,w
  1681  0286  3A80               	xorlw	128
  1682  0287  00FF               	movwf	btemp+1
  1683  0288  3080               	movlw	128
  1684  0289  027F               	subwf	btemp+1,w
  1685  028A  1D03               	skipz
  1686  028B  2A8E               	goto	u4625
  1687  028C  3007               	movlw	7
  1688  028D  0239               	subwf	animation_red_arrow@i_217,w
  1689  028E                     u4625:
  1690  028E  1C03               	skipc
  1691  028F  2A91               	goto	u4621
  1692  0290  2A92               	goto	u4620
  1693  0291                     u4621:
  1694  0291  2A93               	goto	l3411
  1695  0292                     u4620:
  1696  0292  2B07               	goto	l3451
  1697  0293                     l3411:
  1698                           
  1699                           ;Main.c: 577: row = 0b10000000;
  1700  0293  3080               	movlw	128
  1701  0294  1283               	bcf	3,5	;RP0=0, select bank0
  1702  0295  1303               	bcf	3,6	;RP1=0, select bank0
  1703  0296  00A0               	movwf	??_animation_red_arrow
  1704  0297  0820               	movf	??_animation_red_arrow,w
  1705  0298  00C0               	movwf	animation_red_arrow@row
  1706  0299                     l3413:
  1707                           
  1708                           ;Main.c: 579: if (i != 0) {
  1709  0299  0839               	movf	animation_red_arrow@i_217,w
  1710  029A  043A               	iorwf	animation_red_arrow@i_217+1,w
  1711  029B  1903               	btfsc	3,2
  1712  029C  2A9E               	goto	u4631
  1713  029D  2A9F               	goto	u4630
  1714  029E                     u4631:
  1715  029E  2AAC               	goto	l3417
  1716  029F                     u4630:
  1717  029F                     l3415:
  1718                           
  1719                           ;Main.c: 580: row = (row >> i);
  1720  029F  0840               	movf	animation_red_arrow@row,w
  1721  02A0  00A0               	movwf	??_animation_red_arrow
  1722  02A1  0A39               	incf	animation_red_arrow@i_217,w
  1723  02A2  2AA5               	goto	u4644
  1724  02A3                     u4645:
  1725  02A3  1003               	clrc
  1726  02A4  0CA0               	rrf	??_animation_red_arrow,f
  1727  02A5                     u4644:
  1728  02A5  3EFF               	addlw	-1
  1729  02A6  1D03               	skipz
  1730  02A7  2AA3               	goto	u4645
  1731  02A8  0820               	movf	??_animation_red_arrow,w
  1732  02A9  00A1               	movwf	??_animation_red_arrow+1
  1733  02AA  0821               	movf	??_animation_red_arrow+1,w
  1734  02AB  00C0               	movwf	animation_red_arrow@row
  1735  02AC                     l3417:
  1736                           
  1737                           ;Main.c: 581: };Main.c: 583: input_data(row);
  1738  02AC  0840               	movf	animation_red_arrow@row,w
  1739  02AD  158A  2118  118A   	fcall	_input_data
  1740  02B0                     l3419:
  1741                           
  1742                           ;Main.c: 585: if (i == 6) {
  1743  02B0  3006               	movlw	6
  1744  02B1  1283               	bcf	3,5	;RP0=0, select bank0
  1745  02B2  1303               	bcf	3,6	;RP1=0, select bank0
  1746  02B3  0639               	xorwf	animation_red_arrow@i_217,w
  1747  02B4  043A               	iorwf	animation_red_arrow@i_217+1,w
  1748  02B5  1D03               	btfss	3,2
  1749  02B6  2AB8               	goto	u4651
  1750  02B7  2AB9               	goto	u4650
  1751  02B8                     u4651:
  1752  02B8  2ABD               	goto	l3423
  1753  02B9                     u4650:
  1754  02B9                     l3421:
  1755                           
  1756                           ;Main.c: 587: col = 24;
  1757  02B9  3018               	movlw	24
  1758  02BA  00A0               	movwf	??_animation_red_arrow
  1759  02BB  0820               	movf	??_animation_red_arrow,w
  1760  02BC  00BF               	movwf	animation_red_arrow@col
  1761  02BD                     l3423:
  1762                           
  1763                           ;Main.c: 588: };Main.c: 590: if (i == 5 || i == 0 || i == 1 || i == 2) {
  1764  02BD  3005               	movlw	5
  1765  02BE  0639               	xorwf	animation_red_arrow@i_217,w
  1766  02BF  043A               	iorwf	animation_red_arrow@i_217+1,w
  1767  02C0  1903               	btfsc	3,2
  1768  02C1  2AC3               	goto	u4661
  1769  02C2  2AC4               	goto	u4660
  1770  02C3                     u4661:
  1771  02C3  2AD7               	goto	l3431
  1772  02C4                     u4660:
  1773  02C4                     l3425:
  1774  02C4  0839               	movf	animation_red_arrow@i_217,w
  1775  02C5  043A               	iorwf	animation_red_arrow@i_217+1,w
  1776  02C6  1903               	btfsc	3,2
  1777  02C7  2AC9               	goto	u4671
  1778  02C8  2ACA               	goto	u4670
  1779  02C9                     u4671:
  1780  02C9  2AD7               	goto	l3431
  1781  02CA                     u4670:
  1782  02CA                     l3427:
  1783  02CA  0339               	decf	animation_red_arrow@i_217,w
  1784  02CB  043A               	iorwf	animation_red_arrow@i_217+1,w
  1785  02CC  1903               	btfsc	3,2
  1786  02CD  2ACF               	goto	u4681
  1787  02CE  2AD0               	goto	u4680
  1788  02CF                     u4681:
  1789  02CF  2AD7               	goto	l3431
  1790  02D0                     u4680:
  1791  02D0                     l3429:
  1792  02D0  3002               	movlw	2
  1793  02D1  0639               	xorwf	animation_red_arrow@i_217,w
  1794  02D2  043A               	iorwf	animation_red_arrow@i_217+1,w
  1795  02D3  1D03               	btfss	3,2
  1796  02D4  2AD6               	goto	u4691
  1797  02D5  2AD7               	goto	u4690
  1798  02D6                     u4691:
  1799  02D6  2ADB               	goto	l3433
  1800  02D7                     u4690:
  1801  02D7                     l3431:
  1802                           
  1803                           ;Main.c: 592: col = 60;
  1804  02D7  303C               	movlw	60
  1805  02D8  00A0               	movwf	??_animation_red_arrow
  1806  02D9  0820               	movf	??_animation_red_arrow,w
  1807  02DA  00BF               	movwf	animation_red_arrow@col
  1808  02DB                     l3433:
  1809                           
  1810                           ;Main.c: 594: };Main.c: 596: if (i == 4) {
  1811  02DB  3004               	movlw	4
  1812  02DC  0639               	xorwf	animation_red_arrow@i_217,w
  1813  02DD  043A               	iorwf	animation_red_arrow@i_217+1,w
  1814  02DE  1D03               	btfss	3,2
  1815  02DF  2AE1               	goto	u4701
  1816  02E0  2AE2               	goto	u4700
  1817  02E1                     u4701:
  1818  02E1  2AE6               	goto	l3437
  1819  02E2                     u4700:
  1820  02E2                     l3435:
  1821                           
  1822                           ;Main.c: 598: col = 126;
  1823  02E2  307E               	movlw	126
  1824  02E3  00A0               	movwf	??_animation_red_arrow
  1825  02E4  0820               	movf	??_animation_red_arrow,w
  1826  02E5  00BF               	movwf	animation_red_arrow@col
  1827  02E6                     l3437:
  1828                           
  1829                           ;Main.c: 600: };Main.c: 601: if (i == 3) {
  1830  02E6  3003               	movlw	3
  1831  02E7  0639               	xorwf	animation_red_arrow@i_217,w
  1832  02E8  043A               	iorwf	animation_red_arrow@i_217+1,w
  1833  02E9  1D03               	btfss	3,2
  1834  02EA  2AEC               	goto	u4711
  1835  02EB  2AED               	goto	u4710
  1836  02EC                     u4711:
  1837  02EC  2AF1               	goto	l3441
  1838  02ED                     u4710:
  1839  02ED                     l3439:
  1840                           
  1841                           ;Main.c: 603: col = 255;
  1842  02ED  30FF               	movlw	255
  1843  02EE  00A0               	movwf	??_animation_red_arrow
  1844  02EF  0820               	movf	??_animation_red_arrow,w
  1845  02F0  00BF               	movwf	animation_red_arrow@col
  1846  02F1                     l3441:
  1847                           
  1848                           ;Main.c: 605: };Main.c: 606: input_data(0);
  1849  02F1  3000               	movlw	0
  1850  02F2  158A  2118  118A   	fcall	_input_data
  1851  02F5                     l3443:
  1852                           
  1853                           ;Main.c: 607: input_data(col);
  1854  02F5  1283               	bcf	3,5	;RP0=0, select bank0
  1855  02F6  1303               	bcf	3,6	;RP1=0, select bank0
  1856  02F7  083F               	movf	animation_red_arrow@col,w
  1857  02F8  158A  2118  118A   	fcall	_input_data
  1858  02FB                     l3445:
  1859                           
  1860                           ;Main.c: 608: latch_output();
  1861  02FB  158A  20BB  118A   	fcall	_latch_output
  1862  02FE                     l3447:
  1863  02FE  3001               	movlw	1
  1864  02FF  1283               	bcf	3,5	;RP0=0, select bank0
  1865  0300  1303               	bcf	3,6	;RP1=0, select bank0
  1866  0301  07B9               	addwf	animation_red_arrow@i_217,f
  1867  0302  1803               	skipnc
  1868  0303  0ABA               	incf	animation_red_arrow@i_217+1,f
  1869  0304  3000               	movlw	0
  1870  0305  07BA               	addwf	animation_red_arrow@i_217+1,f
  1871  0306  2A85               	goto	l3407
  1872  0307                     l3451:
  1873  0307  3005               	movlw	5
  1874  0308  1283               	bcf	3,5	;RP0=0, select bank0
  1875  0309  1303               	bcf	3,6	;RP1=0, select bank0
  1876  030A  0244               	subwf	_timer_count,w
  1877  030B  1C03               	skipc
  1878  030C  2B0E               	goto	u4721
  1879  030D  2B0F               	goto	u4720
  1880  030E                     u4721:
  1881  030E  2A83               	goto	l3405
  1882  030F                     u4720:
  1883  030F                     l3453:
  1884                           
  1885                           ;Main.c: 609: };Main.c: 610: };Main.c: 611: timer_count = 0;
  1886  030F  01C4               	clrf	_timer_count
  1887                           
  1888                           ;Main.c: 614: while (timer_count < 5) {
  1889  0310  2B9C               	goto	l3503
  1890  0311                     l3455:
  1891                           
  1892                           ;Main.c: 615: for (int i = 0; i < 8; i++) {
  1893  0311  01BD               	clrf	animation_red_arrow@i_218
  1894  0312  01BE               	clrf	animation_red_arrow@i_218+1
  1895  0313                     l3457:
  1896  0313  083E               	movf	animation_red_arrow@i_218+1,w
  1897  0314  3A80               	xorlw	128
  1898  0315  00FF               	movwf	btemp+1
  1899  0316  3080               	movlw	128
  1900  0317  027F               	subwf	btemp+1,w
  1901  0318  1D03               	skipz
  1902  0319  2B1C               	goto	u4735
  1903  031A  3008               	movlw	8
  1904  031B  023D               	subwf	animation_red_arrow@i_218,w
  1905  031C                     u4735:
  1906  031C  1C03               	skipc
  1907  031D  2B1F               	goto	u4731
  1908  031E  2B20               	goto	u4730
  1909  031F                     u4731:
  1910  031F  2B21               	goto	l3461
  1911  0320                     u4730:
  1912  0320  2B9C               	goto	l3503
  1913  0321                     l3461:
  1914                           
  1915                           ;Main.c: 616: row = 0b10000000;
  1916  0321  3080               	movlw	128
  1917  0322  1283               	bcf	3,5	;RP0=0, select bank0
  1918  0323  1303               	bcf	3,6	;RP1=0, select bank0
  1919  0324  00A0               	movwf	??_animation_red_arrow
  1920  0325  0820               	movf	??_animation_red_arrow,w
  1921  0326  00C0               	movwf	animation_red_arrow@row
  1922  0327                     l3463:
  1923                           
  1924                           ;Main.c: 618: if (i != 0) {
  1925  0327  083D               	movf	animation_red_arrow@i_218,w
  1926  0328  043E               	iorwf	animation_red_arrow@i_218+1,w
  1927  0329  1903               	btfsc	3,2
  1928  032A  2B2C               	goto	u4741
  1929  032B  2B2D               	goto	u4740
  1930  032C                     u4741:
  1931  032C  2B3A               	goto	l3467
  1932  032D                     u4740:
  1933  032D                     l3465:
  1934                           
  1935                           ;Main.c: 619: row = (row >> i);
  1936  032D  0840               	movf	animation_red_arrow@row,w
  1937  032E  00A0               	movwf	??_animation_red_arrow
  1938  032F  0A3D               	incf	animation_red_arrow@i_218,w
  1939  0330  2B33               	goto	u4754
  1940  0331                     u4755:
  1941  0331  1003               	clrc
  1942  0332  0CA0               	rrf	??_animation_red_arrow,f
  1943  0333                     u4754:
  1944  0333  3EFF               	addlw	-1
  1945  0334  1D03               	skipz
  1946  0335  2B31               	goto	u4755
  1947  0336  0820               	movf	??_animation_red_arrow,w
  1948  0337  00A1               	movwf	??_animation_red_arrow+1
  1949  0338  0821               	movf	??_animation_red_arrow+1,w
  1950  0339  00C0               	movwf	animation_red_arrow@row
  1951  033A                     l3467:
  1952                           
  1953                           ;Main.c: 620: };Main.c: 622: input_data(row);
  1954  033A  0840               	movf	animation_red_arrow@row,w
  1955  033B  158A  2118  118A   	fcall	_input_data
  1956  033E                     l3469:
  1957                           
  1958                           ;Main.c: 624: if (i == 7) {
  1959  033E  3007               	movlw	7
  1960  033F  1283               	bcf	3,5	;RP0=0, select bank0
  1961  0340  1303               	bcf	3,6	;RP1=0, select bank0
  1962  0341  063D               	xorwf	animation_red_arrow@i_218,w
  1963  0342  043E               	iorwf	animation_red_arrow@i_218+1,w
  1964  0343  1D03               	btfss	3,2
  1965  0344  2B46               	goto	u4761
  1966  0345  2B47               	goto	u4760
  1967  0346                     u4761:
  1968  0346  2B4B               	goto	l3473
  1969  0347                     u4760:
  1970  0347                     l3471:
  1971                           
  1972                           ;Main.c: 626: col = 24;
  1973  0347  3018               	movlw	24
  1974  0348  00A0               	movwf	??_animation_red_arrow
  1975  0349  0820               	movf	??_animation_red_arrow,w
  1976  034A  00BF               	movwf	animation_red_arrow@col
  1977  034B                     l3473:
  1978                           
  1979                           ;Main.c: 627: };Main.c: 629: if (i == 6 || i == 0 || i == 1 || i == 2 || i == 3) {
  1980  034B  3006               	movlw	6
  1981  034C  063D               	xorwf	animation_red_arrow@i_218,w
  1982  034D  043E               	iorwf	animation_red_arrow@i_218+1,w
  1983  034E  1903               	btfsc	3,2
  1984  034F  2B51               	goto	u4771
  1985  0350  2B52               	goto	u4770
  1986  0351                     u4771:
  1987  0351  2B6C               	goto	l3483
  1988  0352                     u4770:
  1989  0352                     l3475:
  1990  0352  083D               	movf	animation_red_arrow@i_218,w
  1991  0353  043E               	iorwf	animation_red_arrow@i_218+1,w
  1992  0354  1903               	btfsc	3,2
  1993  0355  2B57               	goto	u4781
  1994  0356  2B58               	goto	u4780
  1995  0357                     u4781:
  1996  0357  2B6C               	goto	l3483
  1997  0358                     u4780:
  1998  0358                     l3477:
  1999  0358  033D               	decf	animation_red_arrow@i_218,w
  2000  0359  043E               	iorwf	animation_red_arrow@i_218+1,w
  2001  035A  1903               	btfsc	3,2
  2002  035B  2B5D               	goto	u4791
  2003  035C  2B5E               	goto	u4790
  2004  035D                     u4791:
  2005  035D  2B6C               	goto	l3483
  2006  035E                     u4790:
  2007  035E                     l3479:
  2008  035E  3002               	movlw	2
  2009  035F  063D               	xorwf	animation_red_arrow@i_218,w
  2010  0360  043E               	iorwf	animation_red_arrow@i_218+1,w
  2011  0361  1903               	btfsc	3,2
  2012  0362  2B64               	goto	u4801
  2013  0363  2B65               	goto	u4800
  2014  0364                     u4801:
  2015  0364  2B6C               	goto	l3483
  2016  0365                     u4800:
  2017  0365                     l3481:
  2018  0365  3003               	movlw	3
  2019  0366  063D               	xorwf	animation_red_arrow@i_218,w
  2020  0367  043E               	iorwf	animation_red_arrow@i_218+1,w
  2021  0368  1D03               	btfss	3,2
  2022  0369  2B6B               	goto	u4811
  2023  036A  2B6C               	goto	u4810
  2024  036B                     u4811:
  2025  036B  2B70               	goto	l3485
  2026  036C                     u4810:
  2027  036C                     l3483:
  2028                           
  2029                           ;Main.c: 631: col = 60;
  2030  036C  303C               	movlw	60
  2031  036D  00A0               	movwf	??_animation_red_arrow
  2032  036E  0820               	movf	??_animation_red_arrow,w
  2033  036F  00BF               	movwf	animation_red_arrow@col
  2034  0370                     l3485:
  2035                           
  2036                           ;Main.c: 633: };Main.c: 635: if (i == 5) {
  2037  0370  3005               	movlw	5
  2038  0371  063D               	xorwf	animation_red_arrow@i_218,w
  2039  0372  043E               	iorwf	animation_red_arrow@i_218+1,w
  2040  0373  1D03               	btfss	3,2
  2041  0374  2B76               	goto	u4821
  2042  0375  2B77               	goto	u4820
  2043  0376                     u4821:
  2044  0376  2B7B               	goto	l3489
  2045  0377                     u4820:
  2046  0377                     l3487:
  2047                           
  2048                           ;Main.c: 637: col = 126;
  2049  0377  307E               	movlw	126
  2050  0378  00A0               	movwf	??_animation_red_arrow
  2051  0379  0820               	movf	??_animation_red_arrow,w
  2052  037A  00BF               	movwf	animation_red_arrow@col
  2053  037B                     l3489:
  2054                           
  2055                           ;Main.c: 639: };Main.c: 640: if (i == 4) {
  2056  037B  3004               	movlw	4
  2057  037C  063D               	xorwf	animation_red_arrow@i_218,w
  2058  037D  043E               	iorwf	animation_red_arrow@i_218+1,w
  2059  037E  1D03               	btfss	3,2
  2060  037F  2B81               	goto	u4831
  2061  0380  2B82               	goto	u4830
  2062  0381                     u4831:
  2063  0381  2B86               	goto	l3493
  2064  0382                     u4830:
  2065  0382                     l3491:
  2066                           
  2067                           ;Main.c: 642: col = 255;
  2068  0382  30FF               	movlw	255
  2069  0383  00A0               	movwf	??_animation_red_arrow
  2070  0384  0820               	movf	??_animation_red_arrow,w
  2071  0385  00BF               	movwf	animation_red_arrow@col
  2072  0386                     l3493:
  2073                           
  2074                           ;Main.c: 644: };Main.c: 645: input_data(0);
  2075  0386  3000               	movlw	0
  2076  0387  158A  2118  118A   	fcall	_input_data
  2077  038A                     l3495:
  2078                           
  2079                           ;Main.c: 646: input_data(col);
  2080  038A  1283               	bcf	3,5	;RP0=0, select bank0
  2081  038B  1303               	bcf	3,6	;RP1=0, select bank0
  2082  038C  083F               	movf	animation_red_arrow@col,w
  2083  038D  158A  2118  118A   	fcall	_input_data
  2084  0390                     l3497:
  2085                           
  2086                           ;Main.c: 647: latch_output();
  2087  0390  158A  20BB  118A   	fcall	_latch_output
  2088  0393                     l3499:
  2089  0393  3001               	movlw	1
  2090  0394  1283               	bcf	3,5	;RP0=0, select bank0
  2091  0395  1303               	bcf	3,6	;RP1=0, select bank0
  2092  0396  07BD               	addwf	animation_red_arrow@i_218,f
  2093  0397  1803               	skipnc
  2094  0398  0ABE               	incf	animation_red_arrow@i_218+1,f
  2095  0399  3000               	movlw	0
  2096  039A  07BE               	addwf	animation_red_arrow@i_218+1,f
  2097  039B  2B13               	goto	l3457
  2098  039C                     l3503:
  2099  039C  3005               	movlw	5
  2100  039D  1283               	bcf	3,5	;RP0=0, select bank0
  2101  039E  1303               	bcf	3,6	;RP1=0, select bank0
  2102  039F  0244               	subwf	_timer_count,w
  2103  03A0  1C03               	skipc
  2104  03A1  2BA3               	goto	u4841
  2105  03A2  2BA4               	goto	u4840
  2106  03A3                     u4841:
  2107  03A3  2B11               	goto	l3455
  2108  03A4                     u4840:
  2109  03A4                     l3505:
  2110                           
  2111                           ;Main.c: 648: };Main.c: 649: };Main.c: 650: timer_count = 0;
  2112  03A4  01C4               	clrf	_timer_count
  2113                           
  2114                           ;Main.c: 657: while (timer_count < 200) {
  2115  03A5  2BA9               	goto	l3509
  2116  03A6                     l3507:
  2117                           
  2118                           ;Main.c: 659: red_arrow();
  2119  03A6  118A  26D9  118A   	fcall	_red_arrow
  2120  03A9                     l3509:
  2121  03A9  30C8               	movlw	200
  2122  03AA  1283               	bcf	3,5	;RP0=0, select bank0
  2123  03AB  1303               	bcf	3,6	;RP1=0, select bank0
  2124  03AC  0244               	subwf	_timer_count,w
  2125  03AD  1C03               	skipc
  2126  03AE  2BB0               	goto	u4851
  2127  03AF  2BB1               	goto	u4850
  2128  03B0                     u4851:
  2129  03B0  2BA6               	goto	l3507
  2130  03B1                     u4850:
  2131  03B1  2C35               	goto	l3555
  2132  03B2                     l3511:
  2133                           
  2134                           ;Main.c: 666: for (int i = 1; i < 8; i++) {
  2135  03B2  3001               	movlw	1
  2136  03B3  00BB               	movwf	animation_red_arrow@i_220
  2137  03B4  3000               	movlw	0
  2138  03B5  00BC               	movwf	animation_red_arrow@i_220+1
  2139  03B6                     l3513:
  2140  03B6  083C               	movf	animation_red_arrow@i_220+1,w
  2141  03B7  3A80               	xorlw	128
  2142  03B8  00FF               	movwf	btemp+1
  2143  03B9  3080               	movlw	128
  2144  03BA  027F               	subwf	btemp+1,w
  2145  03BB  1D03               	skipz
  2146  03BC  2BBF               	goto	u4865
  2147  03BD  3008               	movlw	8
  2148  03BE  023B               	subwf	animation_red_arrow@i_220,w
  2149  03BF                     u4865:
  2150  03BF  1C03               	skipc
  2151  03C0  2BC2               	goto	u4861
  2152  03C1  2BC3               	goto	u4860
  2153  03C2                     u4861:
  2154  03C2  2BC4               	goto	l3517
  2155  03C3                     u4860:
  2156  03C3  2C35               	goto	l3555
  2157  03C4                     l3517:
  2158                           
  2159                           ;Main.c: 667: row = 0b10000000;
  2160  03C4  3080               	movlw	128
  2161  03C5  1283               	bcf	3,5	;RP0=0, select bank0
  2162  03C6  1303               	bcf	3,6	;RP1=0, select bank0
  2163  03C7  00A0               	movwf	??_animation_red_arrow
  2164  03C8  0820               	movf	??_animation_red_arrow,w
  2165  03C9  00C0               	movwf	animation_red_arrow@row
  2166  03CA                     l3519:
  2167                           
  2168                           ;Main.c: 669: if (i != 0) {
  2169  03CA  083B               	movf	animation_red_arrow@i_220,w
  2170  03CB  043C               	iorwf	animation_red_arrow@i_220+1,w
  2171  03CC  1903               	btfsc	3,2
  2172  03CD  2BCF               	goto	u4871
  2173  03CE  2BD0               	goto	u4870
  2174  03CF                     u4871:
  2175  03CF  2BDD               	goto	l3523
  2176  03D0                     u4870:
  2177  03D0                     l3521:
  2178                           
  2179                           ;Main.c: 670: row = (row >> i);
  2180  03D0  0840               	movf	animation_red_arrow@row,w
  2181  03D1  00A0               	movwf	??_animation_red_arrow
  2182  03D2  0A3B               	incf	animation_red_arrow@i_220,w
  2183  03D3  2BD6               	goto	u4884
  2184  03D4                     u4885:
  2185  03D4  1003               	clrc
  2186  03D5  0CA0               	rrf	??_animation_red_arrow,f
  2187  03D6                     u4884:
  2188  03D6  3EFF               	addlw	-1
  2189  03D7  1D03               	skipz
  2190  03D8  2BD4               	goto	u4885
  2191  03D9  0820               	movf	??_animation_red_arrow,w
  2192  03DA  00A1               	movwf	??_animation_red_arrow+1
  2193  03DB  0821               	movf	??_animation_red_arrow+1,w
  2194  03DC  00C0               	movwf	animation_red_arrow@row
  2195  03DD                     l3523:
  2196                           
  2197                           ;Main.c: 671: };Main.c: 673: input_data(row);
  2198  03DD  0840               	movf	animation_red_arrow@row,w
  2199  03DE  158A  2118  118A   	fcall	_input_data
  2200  03E1                     l3525:
  2201                           
  2202                           ;Main.c: 675: if (i == 7 || i == 1 || i == 2 || i == 3 || i == 4) {
  2203  03E1  3007               	movlw	7
  2204  03E2  1283               	bcf	3,5	;RP0=0, select bank0
  2205  03E3  1303               	bcf	3,6	;RP1=0, select bank0
  2206  03E4  063B               	xorwf	animation_red_arrow@i_220,w
  2207  03E5  043C               	iorwf	animation_red_arrow@i_220+1,w
  2208  03E6  1903               	btfsc	3,2
  2209  03E7  2BE9               	goto	u4891
  2210  03E8  2BEA               	goto	u4890
  2211  03E9                     u4891:
  2212  03E9  2C05               	goto	l3535
  2213  03EA                     u4890:
  2214  03EA                     l3527:
  2215  03EA  033B               	decf	animation_red_arrow@i_220,w
  2216  03EB  043C               	iorwf	animation_red_arrow@i_220+1,w
  2217  03EC  1903               	btfsc	3,2
  2218  03ED  2BEF               	goto	u4901
  2219  03EE  2BF0               	goto	u4900
  2220  03EF                     u4901:
  2221  03EF  2C05               	goto	l3535
  2222  03F0                     u4900:
  2223  03F0                     l3529:
  2224  03F0  3002               	movlw	2
  2225  03F1  063B               	xorwf	animation_red_arrow@i_220,w
  2226  03F2  043C               	iorwf	animation_red_arrow@i_220+1,w
  2227  03F3  1903               	btfsc	3,2
  2228  03F4  2BF6               	goto	u4911
  2229  03F5  2BF7               	goto	u4910
  2230  03F6                     u4911:
  2231  03F6  2C05               	goto	l3535
  2232  03F7                     u4910:
  2233  03F7                     l3531:
  2234  03F7  3003               	movlw	3
  2235  03F8  063B               	xorwf	animation_red_arrow@i_220,w
  2236  03F9  043C               	iorwf	animation_red_arrow@i_220+1,w
  2237  03FA  1903               	btfsc	3,2
  2238  03FB  2BFD               	goto	u4921
  2239  03FC  2BFE               	goto	u4920
  2240  03FD                     u4921:
  2241  03FD  2C05               	goto	l3535
  2242  03FE                     u4920:
  2243  03FE                     l3533:
  2244  03FE  3004               	movlw	4
  2245  03FF  063B               	xorwf	animation_red_arrow@i_220,w
  2246  0400  043C               	iorwf	animation_red_arrow@i_220+1,w
  2247  0401  1D03               	btfss	3,2
  2248  0402  2C04               	goto	u4931
  2249  0403  2C05               	goto	u4930
  2250  0404                     u4931:
  2251  0404  2C09               	goto	l3537
  2252  0405                     u4930:
  2253  0405                     l3535:
  2254                           
  2255                           ;Main.c: 677: col = 60;
  2256  0405  303C               	movlw	60
  2257  0406  00A0               	movwf	??_animation_red_arrow
  2258  0407  0820               	movf	??_animation_red_arrow,w
  2259  0408  00BF               	movwf	animation_red_arrow@col
  2260  0409                     l3537:
  2261                           
  2262                           ;Main.c: 679: };Main.c: 681: if (i == 6) {
  2263  0409  3006               	movlw	6
  2264  040A  063B               	xorwf	animation_red_arrow@i_220,w
  2265  040B  043C               	iorwf	animation_red_arrow@i_220+1,w
  2266  040C  1D03               	btfss	3,2
  2267  040D  2C0F               	goto	u4941
  2268  040E  2C10               	goto	u4940
  2269  040F                     u4941:
  2270  040F  2C14               	goto	l3541
  2271  0410                     u4940:
  2272  0410                     l3539:
  2273                           
  2274                           ;Main.c: 683: col = 126;
  2275  0410  307E               	movlw	126
  2276  0411  00A0               	movwf	??_animation_red_arrow
  2277  0412  0820               	movf	??_animation_red_arrow,w
  2278  0413  00BF               	movwf	animation_red_arrow@col
  2279  0414                     l3541:
  2280                           
  2281                           ;Main.c: 685: };Main.c: 686: if (i == 5) {
  2282  0414  3005               	movlw	5
  2283  0415  063B               	xorwf	animation_red_arrow@i_220,w
  2284  0416  043C               	iorwf	animation_red_arrow@i_220+1,w
  2285  0417  1D03               	btfss	3,2
  2286  0418  2C1A               	goto	u4951
  2287  0419  2C1B               	goto	u4950
  2288  041A                     u4951:
  2289  041A  2C1F               	goto	l3545
  2290  041B                     u4950:
  2291  041B                     l3543:
  2292                           
  2293                           ;Main.c: 688: col = 255;
  2294  041B  30FF               	movlw	255
  2295  041C  00A0               	movwf	??_animation_red_arrow
  2296  041D  0820               	movf	??_animation_red_arrow,w
  2297  041E  00BF               	movwf	animation_red_arrow@col
  2298  041F                     l3545:
  2299                           
  2300                           ;Main.c: 690: };Main.c: 691: input_data(0);
  2301  041F  3000               	movlw	0
  2302  0420  158A  2118  118A   	fcall	_input_data
  2303  0423                     l3547:
  2304                           
  2305                           ;Main.c: 692: input_data(col);
  2306  0423  1283               	bcf	3,5	;RP0=0, select bank0
  2307  0424  1303               	bcf	3,6	;RP1=0, select bank0
  2308  0425  083F               	movf	animation_red_arrow@col,w
  2309  0426  158A  2118  118A   	fcall	_input_data
  2310  0429                     l3549:
  2311                           
  2312                           ;Main.c: 693: latch_output();
  2313  0429  158A  20BB  118A   	fcall	_latch_output
  2314  042C                     l3551:
  2315  042C  3001               	movlw	1
  2316  042D  1283               	bcf	3,5	;RP0=0, select bank0
  2317  042E  1303               	bcf	3,6	;RP1=0, select bank0
  2318  042F  07BB               	addwf	animation_red_arrow@i_220,f
  2319  0430  1803               	skipnc
  2320  0431  0ABC               	incf	animation_red_arrow@i_220+1,f
  2321  0432  3000               	movlw	0
  2322  0433  07BC               	addwf	animation_red_arrow@i_220+1,f
  2323  0434  2BB6               	goto	l3513
  2324  0435                     l3555:
  2325  0435  3005               	movlw	5
  2326  0436  1283               	bcf	3,5	;RP0=0, select bank0
  2327  0437  1303               	bcf	3,6	;RP1=0, select bank0
  2328  0438  0244               	subwf	_timer_count,w
  2329  0439  1C03               	skipc
  2330  043A  2C3C               	goto	u4961
  2331  043B  2C3D               	goto	u4960
  2332  043C                     u4961:
  2333  043C  2BB2               	goto	l3511
  2334  043D                     u4960:
  2335  043D                     l3557:
  2336                           
  2337                           ;Main.c: 694: };Main.c: 695: };Main.c: 696: timer_count = 0;
  2338  043D  01C4               	clrf	_timer_count
  2339                           
  2340                           ;Main.c: 699: while (timer_count < 4) {
  2341  043E  2CBC               	goto	l3601
  2342  043F                     l3559:
  2343                           
  2344                           ;Main.c: 700: for (int i = 2; i < 8; i++) {
  2345  043F  3002               	movlw	2
  2346  0440  00B7               	movwf	animation_red_arrow@i_221
  2347  0441  3000               	movlw	0
  2348  0442  00B8               	movwf	animation_red_arrow@i_221+1
  2349  0443                     l3561:
  2350  0443  0838               	movf	animation_red_arrow@i_221+1,w
  2351  0444  3A80               	xorlw	128
  2352  0445  00FF               	movwf	btemp+1
  2353  0446  3080               	movlw	128
  2354  0447  027F               	subwf	btemp+1,w
  2355  0448  1D03               	skipz
  2356  0449  2C4C               	goto	u4975
  2357  044A  3008               	movlw	8
  2358  044B  0237               	subwf	animation_red_arrow@i_221,w
  2359  044C                     u4975:
  2360  044C  1C03               	skipc
  2361  044D  2C4F               	goto	u4971
  2362  044E  2C50               	goto	u4970
  2363  044F                     u4971:
  2364  044F  2C51               	goto	l3565
  2365  0450                     u4970:
  2366  0450  2CBC               	goto	l3601
  2367  0451                     l3565:
  2368                           
  2369                           ;Main.c: 701: row = 0b10000000;
  2370  0451  3080               	movlw	128
  2371  0452  1283               	bcf	3,5	;RP0=0, select bank0
  2372  0453  1303               	bcf	3,6	;RP1=0, select bank0
  2373  0454  00A0               	movwf	??_animation_red_arrow
  2374  0455  0820               	movf	??_animation_red_arrow,w
  2375  0456  00C0               	movwf	animation_red_arrow@row
  2376  0457                     l3567:
  2377                           
  2378                           ;Main.c: 703: if (i != 0) {
  2379  0457  0837               	movf	animation_red_arrow@i_221,w
  2380  0458  0438               	iorwf	animation_red_arrow@i_221+1,w
  2381  0459  1903               	btfsc	3,2
  2382  045A  2C5C               	goto	u4981
  2383  045B  2C5D               	goto	u4980
  2384  045C                     u4981:
  2385  045C  2C6A               	goto	l3571
  2386  045D                     u4980:
  2387  045D                     l3569:
  2388                           
  2389                           ;Main.c: 704: row = (row >> i);
  2390  045D  0840               	movf	animation_red_arrow@row,w
  2391  045E  00A0               	movwf	??_animation_red_arrow
  2392  045F  0A37               	incf	animation_red_arrow@i_221,w
  2393  0460  2C63               	goto	u4994
  2394  0461                     u4995:
  2395  0461  1003               	clrc
  2396  0462  0CA0               	rrf	??_animation_red_arrow,f
  2397  0463                     u4994:
  2398  0463  3EFF               	addlw	-1
  2399  0464  1D03               	skipz
  2400  0465  2C61               	goto	u4995
  2401  0466  0820               	movf	??_animation_red_arrow,w
  2402  0467  00A1               	movwf	??_animation_red_arrow+1
  2403  0468  0821               	movf	??_animation_red_arrow+1,w
  2404  0469  00C0               	movwf	animation_red_arrow@row
  2405  046A                     l3571:
  2406                           
  2407                           ;Main.c: 705: };Main.c: 707: input_data(row);
  2408  046A  0840               	movf	animation_red_arrow@row,w
  2409  046B  158A  2118  118A   	fcall	_input_data
  2410  046E                     l3573:
  2411                           
  2412                           ;Main.c: 709: if (i == 2 || i == 3 || i == 4 || i == 5) {
  2413  046E  3002               	movlw	2
  2414  046F  1283               	bcf	3,5	;RP0=0, select bank0
  2415  0470  1303               	bcf	3,6	;RP1=0, select bank0
  2416  0471  0637               	xorwf	animation_red_arrow@i_221,w
  2417  0472  0438               	iorwf	animation_red_arrow@i_221+1,w
  2418  0473  1903               	btfsc	3,2
  2419  0474  2C76               	goto	u5001
  2420  0475  2C77               	goto	u5000
  2421  0476                     u5001:
  2422  0476  2C8C               	goto	l3581
  2423  0477                     u5000:
  2424  0477                     l3575:
  2425  0477  3003               	movlw	3
  2426  0478  0637               	xorwf	animation_red_arrow@i_221,w
  2427  0479  0438               	iorwf	animation_red_arrow@i_221+1,w
  2428  047A  1903               	btfsc	3,2
  2429  047B  2C7D               	goto	u5011
  2430  047C  2C7E               	goto	u5010
  2431  047D                     u5011:
  2432  047D  2C8C               	goto	l3581
  2433  047E                     u5010:
  2434  047E                     l3577:
  2435  047E  3004               	movlw	4
  2436  047F  0637               	xorwf	animation_red_arrow@i_221,w
  2437  0480  0438               	iorwf	animation_red_arrow@i_221+1,w
  2438  0481  1903               	btfsc	3,2
  2439  0482  2C84               	goto	u5021
  2440  0483  2C85               	goto	u5020
  2441  0484                     u5021:
  2442  0484  2C8C               	goto	l3581
  2443  0485                     u5020:
  2444  0485                     l3579:
  2445  0485  3005               	movlw	5
  2446  0486  0637               	xorwf	animation_red_arrow@i_221,w
  2447  0487  0438               	iorwf	animation_red_arrow@i_221+1,w
  2448  0488  1D03               	btfss	3,2
  2449  0489  2C8B               	goto	u5031
  2450  048A  2C8C               	goto	u5030
  2451  048B                     u5031:
  2452  048B  2C90               	goto	l3583
  2453  048C                     u5030:
  2454  048C                     l3581:
  2455                           
  2456                           ;Main.c: 711: col = 60;
  2457  048C  303C               	movlw	60
  2458  048D  00A0               	movwf	??_animation_red_arrow
  2459  048E  0820               	movf	??_animation_red_arrow,w
  2460  048F  00BF               	movwf	animation_red_arrow@col
  2461  0490                     l3583:
  2462                           
  2463                           ;Main.c: 713: };Main.c: 715: if (i == 7) {
  2464  0490  3007               	movlw	7
  2465  0491  0637               	xorwf	animation_red_arrow@i_221,w
  2466  0492  0438               	iorwf	animation_red_arrow@i_221+1,w
  2467  0493  1D03               	btfss	3,2
  2468  0494  2C96               	goto	u5041
  2469  0495  2C97               	goto	u5040
  2470  0496                     u5041:
  2471  0496  2C9B               	goto	l3587
  2472  0497                     u5040:
  2473  0497                     l3585:
  2474                           
  2475                           ;Main.c: 717: col = 126;
  2476  0497  307E               	movlw	126
  2477  0498  00A0               	movwf	??_animation_red_arrow
  2478  0499  0820               	movf	??_animation_red_arrow,w
  2479  049A  00BF               	movwf	animation_red_arrow@col
  2480  049B                     l3587:
  2481                           
  2482                           ;Main.c: 719: };Main.c: 720: if (i == 6) {
  2483  049B  3006               	movlw	6
  2484  049C  0637               	xorwf	animation_red_arrow@i_221,w
  2485  049D  0438               	iorwf	animation_red_arrow@i_221+1,w
  2486  049E  1D03               	btfss	3,2
  2487  049F  2CA1               	goto	u5051
  2488  04A0  2CA2               	goto	u5050
  2489  04A1                     u5051:
  2490  04A1  2CA6               	goto	l3591
  2491  04A2                     u5050:
  2492  04A2                     l3589:
  2493                           
  2494                           ;Main.c: 722: col = 255;
  2495  04A2  30FF               	movlw	255
  2496  04A3  00A0               	movwf	??_animation_red_arrow
  2497  04A4  0820               	movf	??_animation_red_arrow,w
  2498  04A5  00BF               	movwf	animation_red_arrow@col
  2499  04A6                     l3591:
  2500                           
  2501                           ;Main.c: 724: };Main.c: 725: input_data(0);
  2502  04A6  3000               	movlw	0
  2503  04A7  158A  2118  118A   	fcall	_input_data
  2504  04AA                     l3593:
  2505                           
  2506                           ;Main.c: 726: input_data(col);
  2507  04AA  1283               	bcf	3,5	;RP0=0, select bank0
  2508  04AB  1303               	bcf	3,6	;RP1=0, select bank0
  2509  04AC  083F               	movf	animation_red_arrow@col,w
  2510  04AD  158A  2118  118A   	fcall	_input_data
  2511  04B0                     l3595:
  2512                           
  2513                           ;Main.c: 727: latch_output();
  2514  04B0  158A  20BB  118A   	fcall	_latch_output
  2515  04B3                     l3597:
  2516  04B3  3001               	movlw	1
  2517  04B4  1283               	bcf	3,5	;RP0=0, select bank0
  2518  04B5  1303               	bcf	3,6	;RP1=0, select bank0
  2519  04B6  07B7               	addwf	animation_red_arrow@i_221,f
  2520  04B7  1803               	skipnc
  2521  04B8  0AB8               	incf	animation_red_arrow@i_221+1,f
  2522  04B9  3000               	movlw	0
  2523  04BA  07B8               	addwf	animation_red_arrow@i_221+1,f
  2524  04BB  2C43               	goto	l3561
  2525  04BC                     l3601:
  2526  04BC  3004               	movlw	4
  2527  04BD  1283               	bcf	3,5	;RP0=0, select bank0
  2528  04BE  1303               	bcf	3,6	;RP1=0, select bank0
  2529  04BF  0244               	subwf	_timer_count,w
  2530  04C0  1C03               	skipc
  2531  04C1  2CC3               	goto	u5061
  2532  04C2  2CC4               	goto	u5060
  2533  04C3                     u5061:
  2534  04C3  2C3F               	goto	l3559
  2535  04C4                     u5060:
  2536  04C4                     l3603:
  2537                           
  2538                           ;Main.c: 728: };Main.c: 729: };Main.c: 730: timer_count = 0;
  2539  04C4  01C4               	clrf	_timer_count
  2540                           
  2541                           ;Main.c: 733: while (timer_count < 4) {
  2542  04C5  2D38               	goto	l3643
  2543  04C6                     l3605:
  2544                           
  2545                           ;Main.c: 734: for (int i = 3; i < 8; i++) {
  2546  04C6  3003               	movlw	3
  2547  04C7  00B3               	movwf	animation_red_arrow@i_222
  2548  04C8  3000               	movlw	0
  2549  04C9  00B4               	movwf	animation_red_arrow@i_222+1
  2550  04CA                     l3607:
  2551  04CA  0834               	movf	animation_red_arrow@i_222+1,w
  2552  04CB  3A80               	xorlw	128
  2553  04CC  00FF               	movwf	btemp+1
  2554  04CD  3080               	movlw	128
  2555  04CE  027F               	subwf	btemp+1,w
  2556  04CF  1D03               	skipz
  2557  04D0  2CD3               	goto	u5075
  2558  04D1  3008               	movlw	8
  2559  04D2  0233               	subwf	animation_red_arrow@i_222,w
  2560  04D3                     u5075:
  2561  04D3  1C03               	skipc
  2562  04D4  2CD6               	goto	u5071
  2563  04D5  2CD7               	goto	u5070
  2564  04D6                     u5071:
  2565  04D6  2CD8               	goto	l3611
  2566  04D7                     u5070:
  2567  04D7  2D38               	goto	l3643
  2568  04D8                     l3611:
  2569                           
  2570                           ;Main.c: 735: row = 0b10000000;
  2571  04D8  3080               	movlw	128
  2572  04D9  1283               	bcf	3,5	;RP0=0, select bank0
  2573  04DA  1303               	bcf	3,6	;RP1=0, select bank0
  2574  04DB  00A0               	movwf	??_animation_red_arrow
  2575  04DC  0820               	movf	??_animation_red_arrow,w
  2576  04DD  00C0               	movwf	animation_red_arrow@row
  2577  04DE                     l3613:
  2578                           
  2579                           ;Main.c: 737: if (i != 0) {
  2580  04DE  0833               	movf	animation_red_arrow@i_222,w
  2581  04DF  0434               	iorwf	animation_red_arrow@i_222+1,w
  2582  04E0  1903               	btfsc	3,2
  2583  04E1  2CE3               	goto	u5081
  2584  04E2  2CE4               	goto	u5080
  2585  04E3                     u5081:
  2586  04E3  2CF1               	goto	l3617
  2587  04E4                     u5080:
  2588  04E4                     l3615:
  2589                           
  2590                           ;Main.c: 738: row = (row >> i);
  2591  04E4  0840               	movf	animation_red_arrow@row,w
  2592  04E5  00A0               	movwf	??_animation_red_arrow
  2593  04E6  0A33               	incf	animation_red_arrow@i_222,w
  2594  04E7  2CEA               	goto	u5094
  2595  04E8                     u5095:
  2596  04E8  1003               	clrc
  2597  04E9  0CA0               	rrf	??_animation_red_arrow,f
  2598  04EA                     u5094:
  2599  04EA  3EFF               	addlw	-1
  2600  04EB  1D03               	skipz
  2601  04EC  2CE8               	goto	u5095
  2602  04ED  0820               	movf	??_animation_red_arrow,w
  2603  04EE  00A1               	movwf	??_animation_red_arrow+1
  2604  04EF  0821               	movf	??_animation_red_arrow+1,w
  2605  04F0  00C0               	movwf	animation_red_arrow@row
  2606  04F1                     l3617:
  2607                           
  2608                           ;Main.c: 739: };Main.c: 741: input_data(row);
  2609  04F1  0840               	movf	animation_red_arrow@row,w
  2610  04F2  158A  2118  118A   	fcall	_input_data
  2611  04F5                     l3619:
  2612                           
  2613                           ;Main.c: 743: if (i == 3 || i == 4 || i == 5 || i == 6) {
  2614  04F5  3003               	movlw	3
  2615  04F6  1283               	bcf	3,5	;RP0=0, select bank0
  2616  04F7  1303               	bcf	3,6	;RP1=0, select bank0
  2617  04F8  0633               	xorwf	animation_red_arrow@i_222,w
  2618  04F9  0434               	iorwf	animation_red_arrow@i_222+1,w
  2619  04FA  1903               	btfsc	3,2
  2620  04FB  2CFD               	goto	u5101
  2621  04FC  2CFE               	goto	u5100
  2622  04FD                     u5101:
  2623  04FD  2D13               	goto	l3627
  2624  04FE                     u5100:
  2625  04FE                     l3621:
  2626  04FE  3004               	movlw	4
  2627  04FF  0633               	xorwf	animation_red_arrow@i_222,w
  2628  0500  0434               	iorwf	animation_red_arrow@i_222+1,w
  2629  0501  1903               	btfsc	3,2
  2630  0502  2D04               	goto	u5111
  2631  0503  2D05               	goto	u5110
  2632  0504                     u5111:
  2633  0504  2D13               	goto	l3627
  2634  0505                     u5110:
  2635  0505                     l3623:
  2636  0505  3005               	movlw	5
  2637  0506  0633               	xorwf	animation_red_arrow@i_222,w
  2638  0507  0434               	iorwf	animation_red_arrow@i_222+1,w
  2639  0508  1903               	btfsc	3,2
  2640  0509  2D0B               	goto	u5121
  2641  050A  2D0C               	goto	u5120
  2642  050B                     u5121:
  2643  050B  2D13               	goto	l3627
  2644  050C                     u5120:
  2645  050C                     l3625:
  2646  050C  3006               	movlw	6
  2647  050D  0633               	xorwf	animation_red_arrow@i_222,w
  2648  050E  0434               	iorwf	animation_red_arrow@i_222+1,w
  2649  050F  1D03               	btfss	3,2
  2650  0510  2D12               	goto	u5131
  2651  0511  2D13               	goto	u5130
  2652  0512                     u5131:
  2653  0512  2D17               	goto	l3629
  2654  0513                     u5130:
  2655  0513                     l3627:
  2656                           
  2657                           ;Main.c: 745: col = 60;
  2658  0513  303C               	movlw	60
  2659  0514  00A0               	movwf	??_animation_red_arrow
  2660  0515  0820               	movf	??_animation_red_arrow,w
  2661  0516  00BF               	movwf	animation_red_arrow@col
  2662  0517                     l3629:
  2663                           
  2664                           ;Main.c: 747: };Main.c: 749: if (i == 7) {
  2665  0517  3007               	movlw	7
  2666  0518  0633               	xorwf	animation_red_arrow@i_222,w
  2667  0519  0434               	iorwf	animation_red_arrow@i_222+1,w
  2668  051A  1D03               	btfss	3,2
  2669  051B  2D1D               	goto	u5141
  2670  051C  2D1E               	goto	u5140
  2671  051D                     u5141:
  2672  051D  2D22               	goto	l3633
  2673  051E                     u5140:
  2674  051E                     l3631:
  2675                           
  2676                           ;Main.c: 751: col = 255;
  2677  051E  30FF               	movlw	255
  2678  051F  00A0               	movwf	??_animation_red_arrow
  2679  0520  0820               	movf	??_animation_red_arrow,w
  2680  0521  00BF               	movwf	animation_red_arrow@col
  2681  0522                     l3633:
  2682                           
  2683                           ;Main.c: 753: };Main.c: 754: input_data(0);
  2684  0522  3000               	movlw	0
  2685  0523  158A  2118  118A   	fcall	_input_data
  2686  0526                     l3635:
  2687                           
  2688                           ;Main.c: 755: input_data(col);
  2689  0526  1283               	bcf	3,5	;RP0=0, select bank0
  2690  0527  1303               	bcf	3,6	;RP1=0, select bank0
  2691  0528  083F               	movf	animation_red_arrow@col,w
  2692  0529  158A  2118  118A   	fcall	_input_data
  2693  052C                     l3637:
  2694                           
  2695                           ;Main.c: 756: latch_output();
  2696  052C  158A  20BB  118A   	fcall	_latch_output
  2697  052F                     l3639:
  2698  052F  3001               	movlw	1
  2699  0530  1283               	bcf	3,5	;RP0=0, select bank0
  2700  0531  1303               	bcf	3,6	;RP1=0, select bank0
  2701  0532  07B3               	addwf	animation_red_arrow@i_222,f
  2702  0533  1803               	skipnc
  2703  0534  0AB4               	incf	animation_red_arrow@i_222+1,f
  2704  0535  3000               	movlw	0
  2705  0536  07B4               	addwf	animation_red_arrow@i_222+1,f
  2706  0537  2CCA               	goto	l3607
  2707  0538                     l3643:
  2708  0538  3004               	movlw	4
  2709  0539  1283               	bcf	3,5	;RP0=0, select bank0
  2710  053A  1303               	bcf	3,6	;RP1=0, select bank0
  2711  053B  0244               	subwf	_timer_count,w
  2712  053C  1C03               	skipc
  2713  053D  2D3F               	goto	u5151
  2714  053E  2D40               	goto	u5150
  2715  053F                     u5151:
  2716  053F  2CC6               	goto	l3605
  2717  0540                     u5150:
  2718  0540                     l3645:
  2719                           
  2720                           ;Main.c: 757: };Main.c: 758: };Main.c: 759: timer_count = 0;
  2721  0540  01C4               	clrf	_timer_count
  2722                           
  2723                           ;Main.c: 762: while (timer_count < ani_timer) {
  2724  0541  2DA9               	goto	l3681
  2725  0542                     l3647:
  2726                           
  2727                           ;Main.c: 763: for (int i = 4; i < 8; i++) {
  2728  0542  3004               	movlw	4
  2729  0543  00AF               	movwf	animation_red_arrow@i_223
  2730  0544  3000               	movlw	0
  2731  0545  00B0               	movwf	animation_red_arrow@i_223+1
  2732  0546                     l3649:
  2733  0546  0830               	movf	animation_red_arrow@i_223+1,w
  2734  0547  3A80               	xorlw	128
  2735  0548  00FF               	movwf	btemp+1
  2736  0549  3080               	movlw	128
  2737  054A  027F               	subwf	btemp+1,w
  2738  054B  1D03               	skipz
  2739  054C  2D4F               	goto	u5165
  2740  054D  3008               	movlw	8
  2741  054E  022F               	subwf	animation_red_arrow@i_223,w
  2742  054F                     u5165:
  2743  054F  1C03               	skipc
  2744  0550  2D52               	goto	u5161
  2745  0551  2D53               	goto	u5160
  2746  0552                     u5161:
  2747  0552  2D54               	goto	l3653
  2748  0553                     u5160:
  2749  0553  2DA9               	goto	l3681
  2750  0554                     l3653:
  2751                           
  2752                           ;Main.c: 764: row = 0b10000000;
  2753  0554  3080               	movlw	128
  2754  0555  1283               	bcf	3,5	;RP0=0, select bank0
  2755  0556  1303               	bcf	3,6	;RP1=0, select bank0
  2756  0557  00A0               	movwf	??_animation_red_arrow
  2757  0558  0820               	movf	??_animation_red_arrow,w
  2758  0559  00C0               	movwf	animation_red_arrow@row
  2759  055A                     l3655:
  2760                           
  2761                           ;Main.c: 766: if (i != 0) {
  2762  055A  082F               	movf	animation_red_arrow@i_223,w
  2763  055B  0430               	iorwf	animation_red_arrow@i_223+1,w
  2764  055C  1903               	btfsc	3,2
  2765  055D  2D5F               	goto	u5171
  2766  055E  2D60               	goto	u5170
  2767  055F                     u5171:
  2768  055F  2D6D               	goto	l3659
  2769  0560                     u5170:
  2770  0560                     l3657:
  2771                           
  2772                           ;Main.c: 767: row = (row >> i);
  2773  0560  0840               	movf	animation_red_arrow@row,w
  2774  0561  00A0               	movwf	??_animation_red_arrow
  2775  0562  0A2F               	incf	animation_red_arrow@i_223,w
  2776  0563  2D66               	goto	u5184
  2777  0564                     u5185:
  2778  0564  1003               	clrc
  2779  0565  0CA0               	rrf	??_animation_red_arrow,f
  2780  0566                     u5184:
  2781  0566  3EFF               	addlw	-1
  2782  0567  1D03               	skipz
  2783  0568  2D64               	goto	u5185
  2784  0569  0820               	movf	??_animation_red_arrow,w
  2785  056A  00A1               	movwf	??_animation_red_arrow+1
  2786  056B  0821               	movf	??_animation_red_arrow+1,w
  2787  056C  00C0               	movwf	animation_red_arrow@row
  2788  056D                     l3659:
  2789                           
  2790                           ;Main.c: 768: };Main.c: 770: input_data(row);
  2791  056D  0840               	movf	animation_red_arrow@row,w
  2792  056E  158A  2118  118A   	fcall	_input_data
  2793  0571                     l3661:
  2794                           
  2795                           ;Main.c: 772: if (i == 4 || i == 5 || i == 6 || i == 7) {
  2796  0571  3004               	movlw	4
  2797  0572  1283               	bcf	3,5	;RP0=0, select bank0
  2798  0573  1303               	bcf	3,6	;RP1=0, select bank0
  2799  0574  062F               	xorwf	animation_red_arrow@i_223,w
  2800  0575  0430               	iorwf	animation_red_arrow@i_223+1,w
  2801  0576  1903               	btfsc	3,2
  2802  0577  2D79               	goto	u5191
  2803  0578  2D7A               	goto	u5190
  2804  0579                     u5191:
  2805  0579  2D8F               	goto	l3669
  2806  057A                     u5190:
  2807  057A                     l3663:
  2808  057A  3005               	movlw	5
  2809  057B  062F               	xorwf	animation_red_arrow@i_223,w
  2810  057C  0430               	iorwf	animation_red_arrow@i_223+1,w
  2811  057D  1903               	btfsc	3,2
  2812  057E  2D80               	goto	u5201
  2813  057F  2D81               	goto	u5200
  2814  0580                     u5201:
  2815  0580  2D8F               	goto	l3669
  2816  0581                     u5200:
  2817  0581                     l3665:
  2818  0581  3006               	movlw	6
  2819  0582  062F               	xorwf	animation_red_arrow@i_223,w
  2820  0583  0430               	iorwf	animation_red_arrow@i_223+1,w
  2821  0584  1903               	btfsc	3,2
  2822  0585  2D87               	goto	u5211
  2823  0586  2D88               	goto	u5210
  2824  0587                     u5211:
  2825  0587  2D8F               	goto	l3669
  2826  0588                     u5210:
  2827  0588                     l3667:
  2828  0588  3007               	movlw	7
  2829  0589  062F               	xorwf	animation_red_arrow@i_223,w
  2830  058A  0430               	iorwf	animation_red_arrow@i_223+1,w
  2831  058B  1D03               	btfss	3,2
  2832  058C  2D8E               	goto	u5221
  2833  058D  2D8F               	goto	u5220
  2834  058E                     u5221:
  2835  058E  2D93               	goto	l3671
  2836  058F                     u5220:
  2837  058F                     l3669:
  2838                           
  2839                           ;Main.c: 774: col = 60;
  2840  058F  303C               	movlw	60
  2841  0590  00A0               	movwf	??_animation_red_arrow
  2842  0591  0820               	movf	??_animation_red_arrow,w
  2843  0592  00BF               	movwf	animation_red_arrow@col
  2844  0593                     l3671:
  2845                           
  2846                           ;Main.c: 776: };Main.c: 777: input_data(0);
  2847  0593  3000               	movlw	0
  2848  0594  158A  2118  118A   	fcall	_input_data
  2849  0597                     l3673:
  2850                           
  2851                           ;Main.c: 778: input_data(col);
  2852  0597  1283               	bcf	3,5	;RP0=0, select bank0
  2853  0598  1303               	bcf	3,6	;RP1=0, select bank0
  2854  0599  083F               	movf	animation_red_arrow@col,w
  2855  059A  158A  2118  118A   	fcall	_input_data
  2856  059D                     l3675:
  2857                           
  2858                           ;Main.c: 779: latch_output();
  2859  059D  158A  20BB  118A   	fcall	_latch_output
  2860  05A0                     l3677:
  2861  05A0  3001               	movlw	1
  2862  05A1  1283               	bcf	3,5	;RP0=0, select bank0
  2863  05A2  1303               	bcf	3,6	;RP1=0, select bank0
  2864  05A3  07AF               	addwf	animation_red_arrow@i_223,f
  2865  05A4  1803               	skipnc
  2866  05A5  0AB0               	incf	animation_red_arrow@i_223+1,f
  2867  05A6  3000               	movlw	0
  2868  05A7  07B0               	addwf	animation_red_arrow@i_223+1,f
  2869  05A8  2D46               	goto	l3649
  2870  05A9                     l3681:
  2871  05A9  1283               	bcf	3,5	;RP0=0, select bank0
  2872  05AA  1303               	bcf	3,6	;RP1=0, select bank0
  2873  05AB  082C               	movf	animation_red_arrow@ani_timer,w
  2874  05AC  0244               	subwf	_timer_count,w
  2875  05AD  1C03               	skipc
  2876  05AE  2DB0               	goto	u5231
  2877  05AF  2DB1               	goto	u5230
  2878  05B0                     u5231:
  2879  05B0  2D42               	goto	l3647
  2880  05B1                     u5230:
  2881  05B1                     l3683:
  2882                           
  2883                           ;Main.c: 780: };Main.c: 781: };Main.c: 782: timer_count = 0;
  2884  05B1  01C4               	clrf	_timer_count
  2885                           
  2886                           ;Main.c: 785: while (timer_count < ani_timer) {
  2887  05B2  2E13               	goto	l3717
  2888  05B3                     l3685:
  2889                           
  2890                           ;Main.c: 786: for (int i = 5; i < 8; i++) {
  2891  05B3  3005               	movlw	5
  2892  05B4  00AA               	movwf	animation_red_arrow@i_224
  2893  05B5  3000               	movlw	0
  2894  05B6  00AB               	movwf	animation_red_arrow@i_224+1
  2895  05B7                     l3687:
  2896  05B7  082B               	movf	animation_red_arrow@i_224+1,w
  2897  05B8  3A80               	xorlw	128
  2898  05B9  00FF               	movwf	btemp+1
  2899  05BA  3080               	movlw	128
  2900  05BB  027F               	subwf	btemp+1,w
  2901  05BC  1D03               	skipz
  2902  05BD  2DC0               	goto	u5245
  2903  05BE  3008               	movlw	8
  2904  05BF  022A               	subwf	animation_red_arrow@i_224,w
  2905  05C0                     u5245:
  2906  05C0  1C03               	skipc
  2907  05C1  2DC3               	goto	u5241
  2908  05C2  2DC4               	goto	u5240
  2909  05C3                     u5241:
  2910  05C3  2DC5               	goto	l3691
  2911  05C4                     u5240:
  2912  05C4  2E13               	goto	l3717
  2913  05C5                     l3691:
  2914                           
  2915                           ;Main.c: 787: row = 0b10000000;
  2916  05C5  3080               	movlw	128
  2917  05C6  1283               	bcf	3,5	;RP0=0, select bank0
  2918  05C7  1303               	bcf	3,6	;RP1=0, select bank0
  2919  05C8  00A0               	movwf	??_animation_red_arrow
  2920  05C9  0820               	movf	??_animation_red_arrow,w
  2921  05CA  00C0               	movwf	animation_red_arrow@row
  2922  05CB                     l3693:
  2923                           
  2924                           ;Main.c: 789: if (i != 0) {
  2925  05CB  082A               	movf	animation_red_arrow@i_224,w
  2926  05CC  042B               	iorwf	animation_red_arrow@i_224+1,w
  2927  05CD  1903               	btfsc	3,2
  2928  05CE  2DD0               	goto	u5251
  2929  05CF  2DD1               	goto	u5250
  2930  05D0                     u5251:
  2931  05D0  2DDE               	goto	l3697
  2932  05D1                     u5250:
  2933  05D1                     l3695:
  2934                           
  2935                           ;Main.c: 790: row = (row >> i);
  2936  05D1  0840               	movf	animation_red_arrow@row,w
  2937  05D2  00A0               	movwf	??_animation_red_arrow
  2938  05D3  0A2A               	incf	animation_red_arrow@i_224,w
  2939  05D4  2DD7               	goto	u5264
  2940  05D5                     u5265:
  2941  05D5  1003               	clrc
  2942  05D6  0CA0               	rrf	??_animation_red_arrow,f
  2943  05D7                     u5264:
  2944  05D7  3EFF               	addlw	-1
  2945  05D8  1D03               	skipz
  2946  05D9  2DD5               	goto	u5265
  2947  05DA  0820               	movf	??_animation_red_arrow,w
  2948  05DB  00A1               	movwf	??_animation_red_arrow+1
  2949  05DC  0821               	movf	??_animation_red_arrow+1,w
  2950  05DD  00C0               	movwf	animation_red_arrow@row
  2951  05DE                     l3697:
  2952                           
  2953                           ;Main.c: 791: };Main.c: 793: input_data(row);
  2954  05DE  0840               	movf	animation_red_arrow@row,w
  2955  05DF  158A  2118  118A   	fcall	_input_data
  2956  05E2                     l3699:
  2957                           
  2958                           ;Main.c: 795: if (i == 5 || i == 6 || i == 7) {
  2959  05E2  3005               	movlw	5
  2960  05E3  1283               	bcf	3,5	;RP0=0, select bank0
  2961  05E4  1303               	bcf	3,6	;RP1=0, select bank0
  2962  05E5  062A               	xorwf	animation_red_arrow@i_224,w
  2963  05E6  042B               	iorwf	animation_red_arrow@i_224+1,w
  2964  05E7  1903               	btfsc	3,2
  2965  05E8  2DEA               	goto	u5271
  2966  05E9  2DEB               	goto	u5270
  2967  05EA                     u5271:
  2968  05EA  2DF9               	goto	l3705
  2969  05EB                     u5270:
  2970  05EB                     l3701:
  2971  05EB  3006               	movlw	6
  2972  05EC  062A               	xorwf	animation_red_arrow@i_224,w
  2973  05ED  042B               	iorwf	animation_red_arrow@i_224+1,w
  2974  05EE  1903               	btfsc	3,2
  2975  05EF  2DF1               	goto	u5281
  2976  05F0  2DF2               	goto	u5280
  2977  05F1                     u5281:
  2978  05F1  2DF9               	goto	l3705
  2979  05F2                     u5280:
  2980  05F2                     l3703:
  2981  05F2  3007               	movlw	7
  2982  05F3  062A               	xorwf	animation_red_arrow@i_224,w
  2983  05F4  042B               	iorwf	animation_red_arrow@i_224+1,w
  2984  05F5  1D03               	btfss	3,2
  2985  05F6  2DF8               	goto	u5291
  2986  05F7  2DF9               	goto	u5290
  2987  05F8                     u5291:
  2988  05F8  2DFD               	goto	l3707
  2989  05F9                     u5290:
  2990  05F9                     l3705:
  2991                           
  2992                           ;Main.c: 797: col = 60;
  2993  05F9  303C               	movlw	60
  2994  05FA  00A0               	movwf	??_animation_red_arrow
  2995  05FB  0820               	movf	??_animation_red_arrow,w
  2996  05FC  00BF               	movwf	animation_red_arrow@col
  2997  05FD                     l3707:
  2998                           
  2999                           ;Main.c: 799: };Main.c: 800: input_data(0);
  3000  05FD  3000               	movlw	0
  3001  05FE  158A  2118  118A   	fcall	_input_data
  3002  0601                     l3709:
  3003                           
  3004                           ;Main.c: 801: input_data(col);
  3005  0601  1283               	bcf	3,5	;RP0=0, select bank0
  3006  0602  1303               	bcf	3,6	;RP1=0, select bank0
  3007  0603  083F               	movf	animation_red_arrow@col,w
  3008  0604  158A  2118  118A   	fcall	_input_data
  3009  0607                     l3711:
  3010                           
  3011                           ;Main.c: 802: latch_output();
  3012  0607  158A  20BB  118A   	fcall	_latch_output
  3013  060A                     l3713:
  3014  060A  3001               	movlw	1
  3015  060B  1283               	bcf	3,5	;RP0=0, select bank0
  3016  060C  1303               	bcf	3,6	;RP1=0, select bank0
  3017  060D  07AA               	addwf	animation_red_arrow@i_224,f
  3018  060E  1803               	skipnc
  3019  060F  0AAB               	incf	animation_red_arrow@i_224+1,f
  3020  0610  3000               	movlw	0
  3021  0611  07AB               	addwf	animation_red_arrow@i_224+1,f
  3022  0612  2DB7               	goto	l3687
  3023  0613                     l3717:
  3024  0613  1283               	bcf	3,5	;RP0=0, select bank0
  3025  0614  1303               	bcf	3,6	;RP1=0, select bank0
  3026  0615  082C               	movf	animation_red_arrow@ani_timer,w
  3027  0616  0244               	subwf	_timer_count,w
  3028  0617  1C03               	skipc
  3029  0618  2E1A               	goto	u5301
  3030  0619  2E1B               	goto	u5300
  3031  061A                     u5301:
  3032  061A  2DB3               	goto	l3685
  3033  061B                     u5300:
  3034  061B                     l3719:
  3035                           
  3036                           ;Main.c: 803: };Main.c: 804: };Main.c: 805: timer_count = 0;
  3037  061B  01C4               	clrf	_timer_count
  3038                           
  3039                           ;Main.c: 808: while (timer_count < ani_timer) {
  3040  061C  2E76               	goto	l3751
  3041  061D                     l3721:
  3042                           
  3043                           ;Main.c: 809: for (int i = 6; i < 8; i++) {
  3044  061D  3006               	movlw	6
  3045  061E  00A6               	movwf	animation_red_arrow@i_225
  3046  061F  3000               	movlw	0
  3047  0620  00A7               	movwf	animation_red_arrow@i_225+1
  3048  0621                     l3723:
  3049  0621  0827               	movf	animation_red_arrow@i_225+1,w
  3050  0622  3A80               	xorlw	128
  3051  0623  00FF               	movwf	btemp+1
  3052  0624  3080               	movlw	128
  3053  0625  027F               	subwf	btemp+1,w
  3054  0626  1D03               	skipz
  3055  0627  2E2A               	goto	u5315
  3056  0628  3008               	movlw	8
  3057  0629  0226               	subwf	animation_red_arrow@i_225,w
  3058  062A                     u5315:
  3059  062A  1C03               	skipc
  3060  062B  2E2D               	goto	u5311
  3061  062C  2E2E               	goto	u5310
  3062  062D                     u5311:
  3063  062D  2E2F               	goto	l3727
  3064  062E                     u5310:
  3065  062E  2E76               	goto	l3751
  3066  062F                     l3727:
  3067                           
  3068                           ;Main.c: 810: row = 0b10000000;
  3069  062F  3080               	movlw	128
  3070  0630  1283               	bcf	3,5	;RP0=0, select bank0
  3071  0631  1303               	bcf	3,6	;RP1=0, select bank0
  3072  0632  00A0               	movwf	??_animation_red_arrow
  3073  0633  0820               	movf	??_animation_red_arrow,w
  3074  0634  00C0               	movwf	animation_red_arrow@row
  3075  0635                     l3729:
  3076                           
  3077                           ;Main.c: 812: if (i != 0) {
  3078  0635  0826               	movf	animation_red_arrow@i_225,w
  3079  0636  0427               	iorwf	animation_red_arrow@i_225+1,w
  3080  0637  1903               	btfsc	3,2
  3081  0638  2E3A               	goto	u5321
  3082  0639  2E3B               	goto	u5320
  3083  063A                     u5321:
  3084  063A  2E48               	goto	l3733
  3085  063B                     u5320:
  3086  063B                     l3731:
  3087                           
  3088                           ;Main.c: 813: row = (row >> i);
  3089  063B  0840               	movf	animation_red_arrow@row,w
  3090  063C  00A0               	movwf	??_animation_red_arrow
  3091  063D  0A26               	incf	animation_red_arrow@i_225,w
  3092  063E  2E41               	goto	u5334
  3093  063F                     u5335:
  3094  063F  1003               	clrc
  3095  0640  0CA0               	rrf	??_animation_red_arrow,f
  3096  0641                     u5334:
  3097  0641  3EFF               	addlw	-1
  3098  0642  1D03               	skipz
  3099  0643  2E3F               	goto	u5335
  3100  0644  0820               	movf	??_animation_red_arrow,w
  3101  0645  00A1               	movwf	??_animation_red_arrow+1
  3102  0646  0821               	movf	??_animation_red_arrow+1,w
  3103  0647  00C0               	movwf	animation_red_arrow@row
  3104  0648                     l3733:
  3105                           
  3106                           ;Main.c: 814: };Main.c: 816: input_data(row);
  3107  0648  0840               	movf	animation_red_arrow@row,w
  3108  0649  158A  2118  118A   	fcall	_input_data
  3109  064C                     l3735:
  3110                           
  3111                           ;Main.c: 818: if (i == 6 || i == 7) {
  3112  064C  3006               	movlw	6
  3113  064D  1283               	bcf	3,5	;RP0=0, select bank0
  3114  064E  1303               	bcf	3,6	;RP1=0, select bank0
  3115  064F  0626               	xorwf	animation_red_arrow@i_225,w
  3116  0650  0427               	iorwf	animation_red_arrow@i_225+1,w
  3117  0651  1903               	btfsc	3,2
  3118  0652  2E54               	goto	u5341
  3119  0653  2E55               	goto	u5340
  3120  0654                     u5341:
  3121  0654  2E5C               	goto	l3739
  3122  0655                     u5340:
  3123  0655                     l3737:
  3124  0655  3007               	movlw	7
  3125  0656  0626               	xorwf	animation_red_arrow@i_225,w
  3126  0657  0427               	iorwf	animation_red_arrow@i_225+1,w
  3127  0658  1D03               	btfss	3,2
  3128  0659  2E5B               	goto	u5351
  3129  065A  2E5C               	goto	u5350
  3130  065B                     u5351:
  3131  065B  2E60               	goto	l3741
  3132  065C                     u5350:
  3133  065C                     l3739:
  3134                           
  3135                           ;Main.c: 820: col = 60;
  3136  065C  303C               	movlw	60
  3137  065D  00A0               	movwf	??_animation_red_arrow
  3138  065E  0820               	movf	??_animation_red_arrow,w
  3139  065F  00BF               	movwf	animation_red_arrow@col
  3140  0660                     l3741:
  3141                           
  3142                           ;Main.c: 822: };Main.c: 823: input_data(0);
  3143  0660  3000               	movlw	0
  3144  0661  158A  2118  118A   	fcall	_input_data
  3145  0664                     l3743:
  3146                           
  3147                           ;Main.c: 824: input_data(col);
  3148  0664  1283               	bcf	3,5	;RP0=0, select bank0
  3149  0665  1303               	bcf	3,6	;RP1=0, select bank0
  3150  0666  083F               	movf	animation_red_arrow@col,w
  3151  0667  158A  2118  118A   	fcall	_input_data
  3152  066A                     l3745:
  3153                           
  3154                           ;Main.c: 825: latch_output();
  3155  066A  158A  20BB  118A   	fcall	_latch_output
  3156  066D                     l3747:
  3157  066D  3001               	movlw	1
  3158  066E  1283               	bcf	3,5	;RP0=0, select bank0
  3159  066F  1303               	bcf	3,6	;RP1=0, select bank0
  3160  0670  07A6               	addwf	animation_red_arrow@i_225,f
  3161  0671  1803               	skipnc
  3162  0672  0AA7               	incf	animation_red_arrow@i_225+1,f
  3163  0673  3000               	movlw	0
  3164  0674  07A7               	addwf	animation_red_arrow@i_225+1,f
  3165  0675  2E21               	goto	l3723
  3166  0676                     l3751:
  3167  0676  1283               	bcf	3,5	;RP0=0, select bank0
  3168  0677  1303               	bcf	3,6	;RP1=0, select bank0
  3169  0678  082C               	movf	animation_red_arrow@ani_timer,w
  3170  0679  0244               	subwf	_timer_count,w
  3171  067A  1C03               	skipc
  3172  067B  2E7D               	goto	u5361
  3173  067C  2E7E               	goto	u5360
  3174  067D                     u5361:
  3175  067D  2E1D               	goto	l3721
  3176  067E                     u5360:
  3177  067E                     l3753:
  3178                           
  3179                           ;Main.c: 826: };Main.c: 827: };Main.c: 828: timer_count = 0;
  3180  067E  01C4               	clrf	_timer_count
  3181                           
  3182                           ;Main.c: 831: while (timer_count < ani_timer) {
  3183  067F  2ECF               	goto	l3783
  3184  0680                     l3755:
  3185                           
  3186                           ;Main.c: 832: for (int i = 7; i < 8; i++) {
  3187  0680  3007               	movlw	7
  3188  0681  00A2               	movwf	animation_red_arrow@i_226
  3189  0682  3000               	movlw	0
  3190  0683  00A3               	movwf	animation_red_arrow@i_226+1
  3191  0684                     l3757:
  3192  0684  0823               	movf	animation_red_arrow@i_226+1,w
  3193  0685  3A80               	xorlw	128
  3194  0686  00FF               	movwf	btemp+1
  3195  0687  3080               	movlw	128
  3196  0688  027F               	subwf	btemp+1,w
  3197  0689  1D03               	skipz
  3198  068A  2E8D               	goto	u5375
  3199  068B  3008               	movlw	8
  3200  068C  0222               	subwf	animation_red_arrow@i_226,w
  3201  068D                     u5375:
  3202  068D  1C03               	skipc
  3203  068E  2E90               	goto	u5371
  3204  068F  2E91               	goto	u5370
  3205  0690                     u5371:
  3206  0690  2E92               	goto	l3761
  3207  0691                     u5370:
  3208  0691  2ECF               	goto	l3783
  3209  0692                     l3761:
  3210                           
  3211                           ;Main.c: 833: row = 0b10000000;
  3212  0692  3080               	movlw	128
  3213  0693  1283               	bcf	3,5	;RP0=0, select bank0
  3214  0694  1303               	bcf	3,6	;RP1=0, select bank0
  3215  0695  00A0               	movwf	??_animation_red_arrow
  3216  0696  0820               	movf	??_animation_red_arrow,w
  3217  0697  00C0               	movwf	animation_red_arrow@row
  3218  0698                     l3763:
  3219                           
  3220                           ;Main.c: 835: if (i != 0) {
  3221  0698  0822               	movf	animation_red_arrow@i_226,w
  3222  0699  0423               	iorwf	animation_red_arrow@i_226+1,w
  3223  069A  1903               	btfsc	3,2
  3224  069B  2E9D               	goto	u5381
  3225  069C  2E9E               	goto	u5380
  3226  069D                     u5381:
  3227  069D  2EAB               	goto	l3767
  3228  069E                     u5380:
  3229  069E                     l3765:
  3230                           
  3231                           ;Main.c: 836: row = (row >> i);
  3232  069E  0840               	movf	animation_red_arrow@row,w
  3233  069F  00A0               	movwf	??_animation_red_arrow
  3234  06A0  0A22               	incf	animation_red_arrow@i_226,w
  3235  06A1  2EA4               	goto	u5394
  3236  06A2                     u5395:
  3237  06A2  1003               	clrc
  3238  06A3  0CA0               	rrf	??_animation_red_arrow,f
  3239  06A4                     u5394:
  3240  06A4  3EFF               	addlw	-1
  3241  06A5  1D03               	skipz
  3242  06A6  2EA2               	goto	u5395
  3243  06A7  0820               	movf	??_animation_red_arrow,w
  3244  06A8  00A1               	movwf	??_animation_red_arrow+1
  3245  06A9  0821               	movf	??_animation_red_arrow+1,w
  3246  06AA  00C0               	movwf	animation_red_arrow@row
  3247  06AB                     l3767:
  3248                           
  3249                           ;Main.c: 837: };Main.c: 839: input_data(row);
  3250  06AB  0840               	movf	animation_red_arrow@row,w
  3251  06AC  158A  2118  118A   	fcall	_input_data
  3252  06AF                     l3769:
  3253                           
  3254                           ;Main.c: 841: if (i == 7) {
  3255  06AF  3007               	movlw	7
  3256  06B0  1283               	bcf	3,5	;RP0=0, select bank0
  3257  06B1  1303               	bcf	3,6	;RP1=0, select bank0
  3258  06B2  0622               	xorwf	animation_red_arrow@i_226,w
  3259  06B3  0423               	iorwf	animation_red_arrow@i_226+1,w
  3260  06B4  1D03               	btfss	3,2
  3261  06B5  2EB7               	goto	u5401
  3262  06B6  2EB8               	goto	u5400
  3263  06B7                     u5401:
  3264  06B7  2EB9               	goto	l3773
  3265  06B8                     u5400:
  3266  06B8                     l3771:
  3267                           
  3268                           ;Main.c: 843: col = 0;
  3269  06B8  01BF               	clrf	animation_red_arrow@col
  3270  06B9                     l3773:
  3271                           
  3272                           ;Main.c: 845: };Main.c: 846: input_data(0);
  3273  06B9  3000               	movlw	0
  3274  06BA  158A  2118  118A   	fcall	_input_data
  3275  06BD                     l3775:
  3276                           
  3277                           ;Main.c: 847: input_data(col);
  3278  06BD  1283               	bcf	3,5	;RP0=0, select bank0
  3279  06BE  1303               	bcf	3,6	;RP1=0, select bank0
  3280  06BF  083F               	movf	animation_red_arrow@col,w
  3281  06C0  158A  2118  118A   	fcall	_input_data
  3282  06C3                     l3777:
  3283                           
  3284                           ;Main.c: 848: latch_output();
  3285  06C3  158A  20BB  118A   	fcall	_latch_output
  3286  06C6                     l3779:
  3287  06C6  3001               	movlw	1
  3288  06C7  1283               	bcf	3,5	;RP0=0, select bank0
  3289  06C8  1303               	bcf	3,6	;RP1=0, select bank0
  3290  06C9  07A2               	addwf	animation_red_arrow@i_226,f
  3291  06CA  1803               	skipnc
  3292  06CB  0AA3               	incf	animation_red_arrow@i_226+1,f
  3293  06CC  3000               	movlw	0
  3294  06CD  07A3               	addwf	animation_red_arrow@i_226+1,f
  3295  06CE  2E84               	goto	l3757
  3296  06CF                     l3783:
  3297  06CF  1283               	bcf	3,5	;RP0=0, select bank0
  3298  06D0  1303               	bcf	3,6	;RP1=0, select bank0
  3299  06D1  082C               	movf	animation_red_arrow@ani_timer,w
  3300  06D2  0244               	subwf	_timer_count,w
  3301  06D3  1C03               	skipc
  3302  06D4  2ED6               	goto	u5411
  3303  06D5  2ED7               	goto	u5410
  3304  06D6                     u5411:
  3305  06D6  2E80               	goto	l3755
  3306  06D7                     u5410:
  3307  06D7                     l3785:
  3308                           
  3309                           ;Main.c: 849: };Main.c: 850: };Main.c: 851: timer_count = 0;
  3310  06D7  01C4               	clrf	_timer_count
  3311  06D8                     l265:
  3312  06D8  0008               	return
  3313  06D9                     __end_of_animation_red_arrow:
  3314                           
  3315                           	psect	text3
  3316  06D9                     __ptext3:	
  3317 ;; *************** function _red_arrow *****************
  3318 ;; Defined at:
  3319 ;;		line 340 in file "Main.c"
  3320 ;; Parameters:    Size  Location     Type
  3321 ;;		None
  3322 ;; Auto vars:     Size  Location     Type
  3323 ;;  row             1    8[COMMON] unsigned char 
  3324 ;;  col             1    7[COMMON] unsigned char 
  3325 ;;  i               2    9[COMMON] int 
  3326 ;; Return value:  Size  Location     Type
  3327 ;;                  1    wreg      void 
  3328 ;; Registers used:
  3329 ;;		wreg, status,2, status,0, btemp+1, pclath, cstack
  3330 ;; Tracked objects:
  3331 ;;		On entry : 0/0
  3332 ;;		On exit  : 0/0
  3333 ;;		Unchanged: 0/0
  3334 ;; Data sizes:     COMMON   BANK0   BANK1   BANK2
  3335 ;;      Params:         0       0       0       0
  3336 ;;      Locals:         4       0       0       0
  3337 ;;      Temps:          2       0       0       0
  3338 ;;      Totals:         6       0       0       0
  3339 ;;Total ram usage:        6 bytes
  3340 ;; Hardware stack levels used: 1
  3341 ;; Hardware stack levels required when called: 4
  3342 ;; This function calls:
  3343 ;;		_input_data
  3344 ;;		_latch_output
  3345 ;; This function is called by:
  3346 ;;		_animation_red_arrow
  3347 ;; This function uses a non-reentrant model
  3348 ;;
  3349                           
  3350                           
  3351                           ;psect for function _red_arrow
  3352  06D9                     _red_arrow:
  3353  06D9                     l2531:	
  3354                           ;incstack = 0
  3355                           ; Regs used in _red_arrow: [wreg+status,2+status,0+btemp+1+pclath+cstack]
  3356                           
  3357                           
  3358                           ;Main.c: 341: for (int i = 0; i < 8; i++) {
  3359  06D9  01F9               	clrf	red_arrow@i
  3360  06DA  01FA               	clrf	red_arrow@i+1
  3361  06DB                     l2537:
  3362                           
  3363                           ;Main.c: 342: unsigned char row = 0b10000000;
  3364  06DB  3080               	movlw	128
  3365  06DC  00F5               	movwf	??_red_arrow
  3366  06DD  0875               	movf	??_red_arrow,w
  3367  06DE  00F8               	movwf	red_arrow@row
  3368  06DF                     l2539:
  3369  06DF                     l2541:
  3370                           
  3371                           ;Main.c: 345: if (i != 0) {
  3372  06DF  0879               	movf	red_arrow@i,w
  3373  06E0  047A               	iorwf	red_arrow@i+1,w
  3374  06E1  1903               	btfsc	3,2
  3375  06E2  2EE4               	goto	u2901
  3376  06E3  2EE5               	goto	u2900
  3377  06E4                     u2901:
  3378  06E4  2EF2               	goto	l2545
  3379  06E5                     u2900:
  3380  06E5                     l2543:
  3381                           
  3382                           ;Main.c: 346: row = (row >> i);
  3383  06E5  0878               	movf	red_arrow@row,w
  3384  06E6  00F5               	movwf	??_red_arrow
  3385  06E7  0A79               	incf	red_arrow@i,w
  3386  06E8  2EEB               	goto	u2914
  3387  06E9                     u2915:
  3388  06E9  1003               	clrc
  3389  06EA  0CF5               	rrf	??_red_arrow,f
  3390  06EB                     u2914:
  3391  06EB  3EFF               	addlw	-1
  3392  06EC  1D03               	skipz
  3393  06ED  2EE9               	goto	u2915
  3394  06EE  0875               	movf	??_red_arrow,w
  3395  06EF  00F6               	movwf	??_red_arrow+1
  3396  06F0  0876               	movf	??_red_arrow+1,w
  3397  06F1  00F8               	movwf	red_arrow@row
  3398  06F2                     l2545:
  3399                           
  3400                           ;Main.c: 347: };Main.c: 349: input_data(row);
  3401  06F2  0878               	movf	red_arrow@row,w
  3402  06F3  158A  2118  118A   	fcall	_input_data
  3403  06F6                     l2547:
  3404                           
  3405                           ;Main.c: 352: if (i == 7) {
  3406  06F6  3007               	movlw	7
  3407  06F7  0679               	xorwf	red_arrow@i,w
  3408  06F8  047A               	iorwf	red_arrow@i+1,w
  3409  06F9  1D03               	btfss	3,2
  3410  06FA  2EFC               	goto	u2921
  3411  06FB  2EFD               	goto	u2920
  3412  06FC                     u2921:
  3413  06FC  2F02               	goto	l2551
  3414  06FD                     u2920:
  3415  06FD                     l2549:
  3416                           
  3417                           ;Main.c: 354: col = 24;
  3418  06FD  3018               	movlw	24
  3419  06FE  00F5               	movwf	??_red_arrow
  3420  06FF  0875               	movf	??_red_arrow,w
  3421  0700  00F7               	movwf	red_arrow@col
  3422                           
  3423                           ;Main.c: 355: } else if (i == 0 || i == 1 || i == 2 || i == 3 || i == 6) {
  3424  0701  2F38               	goto	l2569
  3425  0702                     l2551:
  3426  0702  0879               	movf	red_arrow@i,w
  3427  0703  047A               	iorwf	red_arrow@i+1,w
  3428  0704  1903               	btfsc	3,2
  3429  0705  2F07               	goto	u2931
  3430  0706  2F08               	goto	u2930
  3431  0707                     u2931:
  3432  0707  2F23               	goto	l2561
  3433  0708                     u2930:
  3434  0708                     l2553:
  3435  0708  0379               	decf	red_arrow@i,w
  3436  0709  047A               	iorwf	red_arrow@i+1,w
  3437  070A  1903               	btfsc	3,2
  3438  070B  2F0D               	goto	u2941
  3439  070C  2F0E               	goto	u2940
  3440  070D                     u2941:
  3441  070D  2F23               	goto	l2561
  3442  070E                     u2940:
  3443  070E                     l2555:
  3444  070E  3002               	movlw	2
  3445  070F  0679               	xorwf	red_arrow@i,w
  3446  0710  047A               	iorwf	red_arrow@i+1,w
  3447  0711  1903               	btfsc	3,2
  3448  0712  2F14               	goto	u2951
  3449  0713  2F15               	goto	u2950
  3450  0714                     u2951:
  3451  0714  2F23               	goto	l2561
  3452  0715                     u2950:
  3453  0715                     l2557:
  3454  0715  3003               	movlw	3
  3455  0716  0679               	xorwf	red_arrow@i,w
  3456  0717  047A               	iorwf	red_arrow@i+1,w
  3457  0718  1903               	btfsc	3,2
  3458  0719  2F1B               	goto	u2961
  3459  071A  2F1C               	goto	u2960
  3460  071B                     u2961:
  3461  071B  2F23               	goto	l2561
  3462  071C                     u2960:
  3463  071C                     l2559:
  3464  071C  3006               	movlw	6
  3465  071D  0679               	xorwf	red_arrow@i,w
  3466  071E  047A               	iorwf	red_arrow@i+1,w
  3467  071F  1D03               	btfss	3,2
  3468  0720  2F22               	goto	u2971
  3469  0721  2F23               	goto	u2970
  3470  0722                     u2971:
  3471  0722  2F28               	goto	l2563
  3472  0723                     u2970:
  3473  0723                     l2561:
  3474                           
  3475                           ;Main.c: 357: col = 60;
  3476  0723  303C               	movlw	60
  3477  0724  00F5               	movwf	??_red_arrow
  3478  0725  0875               	movf	??_red_arrow,w
  3479  0726  00F7               	movwf	red_arrow@col
  3480                           
  3481                           ;Main.c: 358: } else if (i == 5) {
  3482  0727  2F38               	goto	l2569
  3483  0728                     l2563:
  3484  0728  3005               	movlw	5
  3485  0729  0679               	xorwf	red_arrow@i,w
  3486  072A  047A               	iorwf	red_arrow@i+1,w
  3487  072B  1D03               	btfss	3,2
  3488  072C  2F2E               	goto	u2981
  3489  072D  2F2F               	goto	u2980
  3490  072E                     u2981:
  3491  072E  2F34               	goto	l2567
  3492  072F                     u2980:
  3493  072F                     l2565:
  3494                           
  3495                           ;Main.c: 360: col = 126;
  3496  072F  307E               	movlw	126
  3497  0730  00F5               	movwf	??_red_arrow
  3498  0731  0875               	movf	??_red_arrow,w
  3499  0732  00F7               	movwf	red_arrow@col
  3500                           
  3501                           ;Main.c: 361: } else {
  3502  0733  2F38               	goto	l2569
  3503  0734                     l2567:
  3504                           
  3505                           ;Main.c: 363: col = 255;
  3506  0734  30FF               	movlw	255
  3507  0735  00F5               	movwf	??_red_arrow
  3508  0736  0875               	movf	??_red_arrow,w
  3509  0737  00F7               	movwf	red_arrow@col
  3510  0738                     l2569:
  3511                           
  3512                           ;Main.c: 364: };Main.c: 366: input_data(0);
  3513  0738  3000               	movlw	0
  3514  0739  158A  2118  118A   	fcall	_input_data
  3515  073C                     l2571:
  3516                           
  3517                           ;Main.c: 367: input_data(col);
  3518  073C  0877               	movf	red_arrow@col,w
  3519  073D  158A  2118  118A   	fcall	_input_data
  3520  0740                     l2573:
  3521                           
  3522                           ;Main.c: 368: latch_output();
  3523  0740  158A  20BB  118A   	fcall	_latch_output
  3524  0743                     l2575:
  3525  0743  3001               	movlw	1
  3526  0744  07F9               	addwf	red_arrow@i,f
  3527  0745  1803               	skipnc
  3528  0746  0AFA               	incf	red_arrow@i+1,f
  3529  0747  3000               	movlw	0
  3530  0748  07FA               	addwf	red_arrow@i+1,f
  3531  0749                     l2577:
  3532  0749  087A               	movf	red_arrow@i+1,w
  3533  074A  3A80               	xorlw	128
  3534  074B  00FF               	movwf	btemp+1
  3535  074C  3080               	movlw	128
  3536  074D  027F               	subwf	btemp+1,w
  3537  074E  1D03               	skipz
  3538  074F  2F52               	goto	u2995
  3539  0750  3008               	movlw	8
  3540  0751  0279               	subwf	red_arrow@i,w
  3541  0752                     u2995:
  3542  0752  1C03               	skipc
  3543  0753  2F55               	goto	u2991
  3544  0754  2F56               	goto	u2990
  3545  0755                     u2991:
  3546  0755  2EDB               	goto	l2537
  3547  0756                     u2990:
  3548  0756                     l2579:
  3549                           
  3550                           ;Main.c: 370: };Main.c: 371: input_data(0b00000001);
  3551  0756  3001               	movlw	1
  3552  0757  158A  2118  118A   	fcall	_input_data
  3553                           
  3554                           ;Main.c: 372: input_data(0);
  3555  075A  3000               	movlw	0
  3556  075B  158A  2118  118A   	fcall	_input_data
  3557                           
  3558                           ;Main.c: 373: input_data(0);
  3559  075E  3000               	movlw	0
  3560  075F  158A  2118  118A   	fcall	_input_data
  3561                           
  3562                           ;Main.c: 374: latch_output();
  3563  0762  158A  20BB  118A   	fcall	_latch_output
  3564  0765                     l115:
  3565  0765  0008               	return
  3566  0766                     __end_of_red_arrow:
  3567                           
  3568                           	psect	text4
  3569  0972                     __ptext4:	
  3570 ;; *************** function _animation_green_arrow *****************
  3571 ;; Defined at:
  3572 ;;		line 855 in file "Main.c"
  3573 ;; Parameters:    Size  Location     Type
  3574 ;;		None
  3575 ;; Auto vars:     Size  Location     Type
  3576 ;;  i               2    2[BANK0 ] int 
  3577 ;;  i               2    6[BANK0 ] int 
  3578 ;;  i               2   10[BANK0 ] int 
  3579 ;;  i               2   15[BANK0 ] int 
  3580 ;;  i               2   19[BANK0 ] int 
  3581 ;;  i               2   23[BANK0 ] int 
  3582 ;;  i               2   27[BANK0 ] int 
  3583 ;;  i               2   29[BANK0 ] int 
  3584 ;;  i               2   25[BANK0 ] int 
  3585 ;;  i               2   21[BANK0 ] int 
  3586 ;;  i               2   17[BANK0 ] int 
  3587 ;;  i               2   13[BANK0 ] int 
  3588 ;;  i               2    8[BANK0 ] int 
  3589 ;;  i               2    4[BANK0 ] int 
  3590 ;;  row             1   32[BANK0 ] unsigned char 
  3591 ;;  col             1   31[BANK0 ] unsigned char 
  3592 ;;  ani_timer       1   12[BANK0 ] unsigned char 
  3593 ;; Return value:  Size  Location     Type
  3594 ;;                  1    wreg      void 
  3595 ;; Registers used:
  3596 ;;		wreg, status,2, status,0, btemp+1, pclath, cstack
  3597 ;; Tracked objects:
  3598 ;;		On entry : 0/0
  3599 ;;		On exit  : 0/0
  3600 ;;		Unchanged: 0/0
  3601 ;; Data sizes:     COMMON   BANK0   BANK1   BANK2
  3602 ;;      Params:         0       0       0       0
  3603 ;;      Locals:         0      31       0       0
  3604 ;;      Temps:          0       2       0       0
  3605 ;;      Totals:         0      33       0       0
  3606 ;;Total ram usage:       33 bytes
  3607 ;; Hardware stack levels used: 1
  3608 ;; Hardware stack levels required when called: 5
  3609 ;; This function calls:
  3610 ;;		_green_arrow
  3611 ;;		_input_data
  3612 ;;		_latch_output
  3613 ;; This function is called by:
  3614 ;;		_main
  3615 ;; This function uses a non-reentrant model
  3616 ;;
  3617                           
  3618                           
  3619                           ;psect for function _animation_green_arrow
  3620  0972                     _animation_green_arrow:
  3621  0972                     l2593:	
  3622                           ;incstack = 0
  3623                           ; Regs used in _animation_green_arrow: [wreg+status,2+status,0+btemp+1+pclath+cstack]
  3624                           
  3625  0972                     l2595:
  3626                           
  3627                           ;Main.c: 857: unsigned char col = 0;
  3628  0972  1283               	bcf	3,5	;RP0=0, select bank0
  3629  0973  1303               	bcf	3,6	;RP1=0, select bank0
  3630  0974  01BF               	clrf	animation_green_arrow@col
  3631  0975                     l2597:
  3632                           
  3633                           ;Main.c: 858: unsigned char ani_timer = 2;
  3634  0975  3002               	movlw	2
  3635  0976  00A0               	movwf	??_animation_green_arrow
  3636  0977  0820               	movf	??_animation_green_arrow,w
  3637  0978  00AC               	movwf	animation_green_arrow@ani_timer
  3638                           
  3639                           ;Main.c: 860: while (timer_count < ani_timer) {
  3640  0979  2989               	goto	l2601
  3641  097A                     l269:
  3642  097A                     l2599:
  3643                           
  3644                           ;Main.c: 862: input_data(row);
  3645  097A  3001               	movlw	1
  3646  097B  158A  2118  158A   	fcall	_input_data
  3647                           
  3648                           ;Main.c: 863: input_data(24);
  3649  097E  3018               	movlw	24
  3650  097F  158A  2118  158A   	fcall	_input_data
  3651                           
  3652                           ;Main.c: 864: input_data(0);
  3653  0982  3000               	movlw	0
  3654  0983  158A  2118  158A   	fcall	_input_data
  3655                           
  3656                           ;Main.c: 865: latch_output();
  3657  0986  158A  20BB  158A   	fcall	_latch_output
  3658  0989                     l2601:
  3659  0989  1283               	bcf	3,5	;RP0=0, select bank0
  3660  098A  1303               	bcf	3,6	;RP1=0, select bank0
  3661  098B  082C               	movf	animation_green_arrow@ani_timer,w
  3662  098C  0244               	subwf	_timer_count,w
  3663  098D  1C03               	skipc
  3664  098E  2990               	goto	u3001
  3665  098F  2991               	goto	u3000
  3666  0990                     u3001:
  3667  0990  297A               	goto	l269
  3668  0991                     u3000:
  3669  0991                     l2603:
  3670                           
  3671                           ;Main.c: 866: };Main.c: 867: timer_count = 0;
  3672  0991  01C4               	clrf	_timer_count
  3673                           
  3674                           ;Main.c: 869: while (timer_count < ani_timer) {
  3675  0992  29E6               	goto	l2635
  3676  0993                     l2605:
  3677                           
  3678                           ;Main.c: 870: for (int i = 0; i < 2; i++) {
  3679  0993  01A4               	clrf	animation_green_arrow@i
  3680  0994  01A5               	clrf	animation_green_arrow@i+1
  3681  0995                     l273:
  3682                           
  3683                           ;Main.c: 871: row = 0b00000001;
  3684  0995  1283               	bcf	3,5	;RP0=0, select bank0
  3685  0996  1303               	bcf	3,6	;RP1=0, select bank0
  3686  0997  01C0               	clrf	animation_green_arrow@row
  3687  0998  0AC0               	incf	animation_green_arrow@row,f
  3688  0999                     l2611:
  3689                           
  3690                           ;Main.c: 874: if (i != 0) {
  3691  0999  0824               	movf	animation_green_arrow@i,w
  3692  099A  0425               	iorwf	animation_green_arrow@i+1,w
  3693  099B  1903               	btfsc	3,2
  3694  099C  299E               	goto	u3011
  3695  099D  299F               	goto	u3010
  3696  099E                     u3011:
  3697  099E  29AC               	goto	l2615
  3698  099F                     u3010:
  3699  099F                     l2613:
  3700                           
  3701                           ;Main.c: 875: row = (row << i);
  3702  099F  0840               	movf	animation_green_arrow@row,w
  3703  09A0  00A0               	movwf	??_animation_green_arrow
  3704  09A1  0A24               	incf	animation_green_arrow@i,w
  3705  09A2  29A5               	goto	u3024
  3706  09A3                     u3025:
  3707  09A3  1003               	clrc
  3708  09A4  0DA0               	rlf	??_animation_green_arrow,f
  3709  09A5                     u3024:
  3710  09A5  3EFF               	addlw	-1
  3711  09A6  1D03               	skipz
  3712  09A7  29A3               	goto	u3025
  3713  09A8  0820               	movf	??_animation_green_arrow,w
  3714  09A9  00A1               	movwf	??_animation_green_arrow+1
  3715  09AA  0821               	movf	??_animation_green_arrow+1,w
  3716  09AB  00C0               	movwf	animation_green_arrow@row
  3717  09AC                     l2615:
  3718                           
  3719                           ;Main.c: 876: };Main.c: 878: input_data(row);
  3720  09AC  0840               	movf	animation_green_arrow@row,w
  3721  09AD  158A  2118  158A   	fcall	_input_data
  3722  09B0                     l2617:
  3723                           
  3724                           ;Main.c: 880: if (i == 1) {
  3725  09B0  1283               	bcf	3,5	;RP0=0, select bank0
  3726  09B1  1303               	bcf	3,6	;RP1=0, select bank0
  3727  09B2  0324               	decf	animation_green_arrow@i,w
  3728  09B3  0425               	iorwf	animation_green_arrow@i+1,w
  3729  09B4  1D03               	btfss	3,2
  3730  09B5  29B7               	goto	u3031
  3731  09B6  29B8               	goto	u3030
  3732  09B7                     u3031:
  3733  09B7  29BC               	goto	l2621
  3734  09B8                     u3030:
  3735  09B8                     l2619:
  3736                           
  3737                           ;Main.c: 882: col = 24;
  3738  09B8  3018               	movlw	24
  3739  09B9  00A0               	movwf	??_animation_green_arrow
  3740  09BA  0820               	movf	??_animation_green_arrow,w
  3741  09BB  00BF               	movwf	animation_green_arrow@col
  3742  09BC                     l2621:
  3743                           
  3744                           ;Main.c: 883: };Main.c: 885: if (i == 0) {
  3745  09BC  0824               	movf	animation_green_arrow@i,w
  3746  09BD  0425               	iorwf	animation_green_arrow@i+1,w
  3747  09BE  1D03               	btfss	3,2
  3748  09BF  29C1               	goto	u3041
  3749  09C0  29C2               	goto	u3040
  3750  09C1                     u3041:
  3751  09C1  29C6               	goto	l2625
  3752  09C2                     u3040:
  3753  09C2                     l2623:
  3754                           
  3755                           ;Main.c: 887: col = 60;
  3756  09C2  303C               	movlw	60
  3757  09C3  00A0               	movwf	??_animation_green_arrow
  3758  09C4  0820               	movf	??_animation_green_arrow,w
  3759  09C5  00BF               	movwf	animation_green_arrow@col
  3760  09C6                     l2625:
  3761                           
  3762                           ;Main.c: 889: };Main.c: 890: input_data(col);
  3763  09C6  083F               	movf	animation_green_arrow@col,w
  3764  09C7  158A  2118  158A   	fcall	_input_data
  3765  09CA                     l2627:
  3766                           
  3767                           ;Main.c: 891: input_data(0);
  3768  09CA  3000               	movlw	0
  3769  09CB  158A  2118  158A   	fcall	_input_data
  3770  09CE                     l2629:
  3771                           
  3772                           ;Main.c: 892: latch_output();
  3773  09CE  158A  20BB  158A   	fcall	_latch_output
  3774  09D1                     l2631:
  3775  09D1  3001               	movlw	1
  3776  09D2  1283               	bcf	3,5	;RP0=0, select bank0
  3777  09D3  1303               	bcf	3,6	;RP1=0, select bank0
  3778  09D4  07A4               	addwf	animation_green_arrow@i,f
  3779  09D5  1803               	skipnc
  3780  09D6  0AA5               	incf	animation_green_arrow@i+1,f
  3781  09D7  3000               	movlw	0
  3782  09D8  07A5               	addwf	animation_green_arrow@i+1,f
  3783  09D9                     l2633:
  3784  09D9  0825               	movf	animation_green_arrow@i+1,w
  3785  09DA  3A80               	xorlw	128
  3786  09DB  00FF               	movwf	btemp+1
  3787  09DC  3080               	movlw	128
  3788  09DD  027F               	subwf	btemp+1,w
  3789  09DE  1D03               	skipz
  3790  09DF  29E2               	goto	u3055
  3791  09E0  3002               	movlw	2
  3792  09E1  0224               	subwf	animation_green_arrow@i,w
  3793  09E2                     u3055:
  3794  09E2  1C03               	skipc
  3795  09E3  29E5               	goto	u3051
  3796  09E4  29E6               	goto	u3050
  3797  09E5                     u3051:
  3798  09E5  2995               	goto	l273
  3799  09E6                     u3050:
  3800  09E6                     l2635:
  3801  09E6  1283               	bcf	3,5	;RP0=0, select bank0
  3802  09E7  1303               	bcf	3,6	;RP1=0, select bank0
  3803  09E8  082C               	movf	animation_green_arrow@ani_timer,w
  3804  09E9  0244               	subwf	_timer_count,w
  3805  09EA  1C03               	skipc
  3806  09EB  29ED               	goto	u3061
  3807  09EC  29EE               	goto	u3060
  3808  09ED                     u3061:
  3809  09ED  2993               	goto	l2605
  3810  09EE                     u3060:
  3811  09EE                     l2637:
  3812                           
  3813                           ;Main.c: 894: };Main.c: 896: };Main.c: 897: timer_count = 0;
  3814  09EE  01C4               	clrf	_timer_count
  3815                           
  3816                           ;Main.c: 900: while (timer_count < ani_timer) {
  3817  09EF  2A50               	goto	l2673
  3818  09F0                     l2639:
  3819                           
  3820                           ;Main.c: 901: for (int i = 0; i < 3; i++) {
  3821  09F0  01A8               	clrf	animation_green_arrow@i_232
  3822  09F1  01A9               	clrf	animation_green_arrow@i_232+1
  3823  09F2                     l2641:
  3824  09F2  0829               	movf	animation_green_arrow@i_232+1,w
  3825  09F3  3A80               	xorlw	128
  3826  09F4  00FF               	movwf	btemp+1
  3827  09F5  3080               	movlw	128
  3828  09F6  027F               	subwf	btemp+1,w
  3829  09F7  1D03               	skipz
  3830  09F8  29FB               	goto	u3075
  3831  09F9  3003               	movlw	3
  3832  09FA  0228               	subwf	animation_green_arrow@i_232,w
  3833  09FB                     u3075:
  3834  09FB  1C03               	skipc
  3835  09FC  29FE               	goto	u3071
  3836  09FD  29FF               	goto	u3070
  3837  09FE                     u3071:
  3838  09FE  2A00               	goto	l281
  3839  09FF                     u3070:
  3840  09FF  2A50               	goto	l2673
  3841  0A00                     l281:
  3842                           
  3843                           ;Main.c: 902: row = 0b00000001;
  3844  0A00  1283               	bcf	3,5	;RP0=0, select bank0
  3845  0A01  1303               	bcf	3,6	;RP1=0, select bank0
  3846  0A02  01C0               	clrf	animation_green_arrow@row
  3847  0A03  0AC0               	incf	animation_green_arrow@row,f
  3848  0A04                     l2645:
  3849                           
  3850                           ;Main.c: 904: if (i != 0) {
  3851  0A04  0828               	movf	animation_green_arrow@i_232,w
  3852  0A05  0429               	iorwf	animation_green_arrow@i_232+1,w
  3853  0A06  1903               	btfsc	3,2
  3854  0A07  2A09               	goto	u3081
  3855  0A08  2A0A               	goto	u3080
  3856  0A09                     u3081:
  3857  0A09  2A17               	goto	l2649
  3858  0A0A                     u3080:
  3859  0A0A                     l2647:
  3860                           
  3861                           ;Main.c: 905: row = (row << i);
  3862  0A0A  0840               	movf	animation_green_arrow@row,w
  3863  0A0B  00A0               	movwf	??_animation_green_arrow
  3864  0A0C  0A28               	incf	animation_green_arrow@i_232,w
  3865  0A0D  2A10               	goto	u3094
  3866  0A0E                     u3095:
  3867  0A0E  1003               	clrc
  3868  0A0F  0DA0               	rlf	??_animation_green_arrow,f
  3869  0A10                     u3094:
  3870  0A10  3EFF               	addlw	-1
  3871  0A11  1D03               	skipz
  3872  0A12  2A0E               	goto	u3095
  3873  0A13  0820               	movf	??_animation_green_arrow,w
  3874  0A14  00A1               	movwf	??_animation_green_arrow+1
  3875  0A15  0821               	movf	??_animation_green_arrow+1,w
  3876  0A16  00C0               	movwf	animation_green_arrow@row
  3877  0A17                     l2649:
  3878                           
  3879                           ;Main.c: 906: };Main.c: 908: input_data(row);
  3880  0A17  0840               	movf	animation_green_arrow@row,w
  3881  0A18  158A  2118  158A   	fcall	_input_data
  3882  0A1B                     l2651:
  3883                           
  3884                           ;Main.c: 910: if (i == 2) {
  3885  0A1B  3002               	movlw	2
  3886  0A1C  1283               	bcf	3,5	;RP0=0, select bank0
  3887  0A1D  1303               	bcf	3,6	;RP1=0, select bank0
  3888  0A1E  0628               	xorwf	animation_green_arrow@i_232,w
  3889  0A1F  0429               	iorwf	animation_green_arrow@i_232+1,w
  3890  0A20  1D03               	btfss	3,2
  3891  0A21  2A23               	goto	u3101
  3892  0A22  2A24               	goto	u3100
  3893  0A23                     u3101:
  3894  0A23  2A28               	goto	l2655
  3895  0A24                     u3100:
  3896  0A24                     l2653:
  3897                           
  3898                           ;Main.c: 912: col = 24;
  3899  0A24  3018               	movlw	24
  3900  0A25  00A0               	movwf	??_animation_green_arrow
  3901  0A26  0820               	movf	??_animation_green_arrow,w
  3902  0A27  00BF               	movwf	animation_green_arrow@col
  3903  0A28                     l2655:
  3904                           
  3905                           ;Main.c: 913: };Main.c: 915: if (i == 1) {
  3906  0A28  0328               	decf	animation_green_arrow@i_232,w
  3907  0A29  0429               	iorwf	animation_green_arrow@i_232+1,w
  3908  0A2A  1D03               	btfss	3,2
  3909  0A2B  2A2D               	goto	u3111
  3910  0A2C  2A2E               	goto	u3110
  3911  0A2D                     u3111:
  3912  0A2D  2A32               	goto	l2659
  3913  0A2E                     u3110:
  3914  0A2E                     l2657:
  3915                           
  3916                           ;Main.c: 917: col = 60;
  3917  0A2E  303C               	movlw	60
  3918  0A2F  00A0               	movwf	??_animation_green_arrow
  3919  0A30  0820               	movf	??_animation_green_arrow,w
  3920  0A31  00BF               	movwf	animation_green_arrow@col
  3921  0A32                     l2659:
  3922                           
  3923                           ;Main.c: 919: };Main.c: 921: if (i == 0) {
  3924  0A32  0828               	movf	animation_green_arrow@i_232,w
  3925  0A33  0429               	iorwf	animation_green_arrow@i_232+1,w
  3926  0A34  1D03               	btfss	3,2
  3927  0A35  2A37               	goto	u3121
  3928  0A36  2A38               	goto	u3120
  3929  0A37                     u3121:
  3930  0A37  2A3C               	goto	l2663
  3931  0A38                     u3120:
  3932  0A38                     l2661:
  3933                           
  3934                           ;Main.c: 923: col = 126;
  3935  0A38  307E               	movlw	126
  3936  0A39  00A0               	movwf	??_animation_green_arrow
  3937  0A3A  0820               	movf	??_animation_green_arrow,w
  3938  0A3B  00BF               	movwf	animation_green_arrow@col
  3939  0A3C                     l2663:
  3940                           
  3941                           ;Main.c: 925: };Main.c: 926: input_data(col);
  3942  0A3C  083F               	movf	animation_green_arrow@col,w
  3943  0A3D  158A  2118  158A   	fcall	_input_data
  3944  0A40                     l2665:
  3945                           
  3946                           ;Main.c: 927: input_data(0);
  3947  0A40  3000               	movlw	0
  3948  0A41  158A  2118  158A   	fcall	_input_data
  3949  0A44                     l2667:
  3950                           
  3951                           ;Main.c: 929: latch_output();
  3952  0A44  158A  20BB  158A   	fcall	_latch_output
  3953  0A47                     l2669:
  3954  0A47  3001               	movlw	1
  3955  0A48  1283               	bcf	3,5	;RP0=0, select bank0
  3956  0A49  1303               	bcf	3,6	;RP1=0, select bank0
  3957  0A4A  07A8               	addwf	animation_green_arrow@i_232,f
  3958  0A4B  1803               	skipnc
  3959  0A4C  0AA9               	incf	animation_green_arrow@i_232+1,f
  3960  0A4D  3000               	movlw	0
  3961  0A4E  07A9               	addwf	animation_green_arrow@i_232+1,f
  3962  0A4F  29F2               	goto	l2641
  3963  0A50                     l2673:
  3964  0A50  1283               	bcf	3,5	;RP0=0, select bank0
  3965  0A51  1303               	bcf	3,6	;RP1=0, select bank0
  3966  0A52  082C               	movf	animation_green_arrow@ani_timer,w
  3967  0A53  0244               	subwf	_timer_count,w
  3968  0A54  1C03               	skipc
  3969  0A55  2A57               	goto	u3131
  3970  0A56  2A58               	goto	u3130
  3971  0A57                     u3131:
  3972  0A57  29F0               	goto	l2639
  3973  0A58                     u3130:
  3974  0A58                     l2675:
  3975                           
  3976                           ;Main.c: 930: };Main.c: 931: };Main.c: 932: timer_count = 0;
  3977  0A58  01C4               	clrf	_timer_count
  3978                           
  3979                           ;Main.c: 935: while (timer_count < 4) {
  3980  0A59  2AC5               	goto	l2715
  3981  0A5A                     l2677:
  3982                           
  3983                           ;Main.c: 936: for (int i = 0; i < 4; i++) {
  3984  0A5A  01AD               	clrf	animation_green_arrow@i_233
  3985  0A5B  01AE               	clrf	animation_green_arrow@i_233+1
  3986  0A5C                     l2679:
  3987  0A5C  082E               	movf	animation_green_arrow@i_233+1,w
  3988  0A5D  3A80               	xorlw	128
  3989  0A5E  00FF               	movwf	btemp+1
  3990  0A5F  3080               	movlw	128
  3991  0A60  027F               	subwf	btemp+1,w
  3992  0A61  1D03               	skipz
  3993  0A62  2A65               	goto	u3145
  3994  0A63  3004               	movlw	4
  3995  0A64  022D               	subwf	animation_green_arrow@i_233,w
  3996  0A65                     u3145:
  3997  0A65  1C03               	skipc
  3998  0A66  2A68               	goto	u3141
  3999  0A67  2A69               	goto	u3140
  4000  0A68                     u3141:
  4001  0A68  2A6A               	goto	l290
  4002  0A69                     u3140:
  4003  0A69  2AC5               	goto	l2715
  4004  0A6A                     l290:
  4005                           
  4006                           ;Main.c: 937: row = 0b00000001;
  4007  0A6A  1283               	bcf	3,5	;RP0=0, select bank0
  4008  0A6B  1303               	bcf	3,6	;RP1=0, select bank0
  4009  0A6C  01C0               	clrf	animation_green_arrow@row
  4010  0A6D  0AC0               	incf	animation_green_arrow@row,f
  4011  0A6E                     l2683:
  4012                           
  4013                           ;Main.c: 939: if (i != 0) {
  4014  0A6E  082D               	movf	animation_green_arrow@i_233,w
  4015  0A6F  042E               	iorwf	animation_green_arrow@i_233+1,w
  4016  0A70  1903               	btfsc	3,2
  4017  0A71  2A73               	goto	u3151
  4018  0A72  2A74               	goto	u3150
  4019  0A73                     u3151:
  4020  0A73  2A81               	goto	l2687
  4021  0A74                     u3150:
  4022  0A74                     l2685:
  4023                           
  4024                           ;Main.c: 940: row = (row << i);
  4025  0A74  0840               	movf	animation_green_arrow@row,w
  4026  0A75  00A0               	movwf	??_animation_green_arrow
  4027  0A76  0A2D               	incf	animation_green_arrow@i_233,w
  4028  0A77  2A7A               	goto	u3164
  4029  0A78                     u3165:
  4030  0A78  1003               	clrc
  4031  0A79  0DA0               	rlf	??_animation_green_arrow,f
  4032  0A7A                     u3164:
  4033  0A7A  3EFF               	addlw	-1
  4034  0A7B  1D03               	skipz
  4035  0A7C  2A78               	goto	u3165
  4036  0A7D  0820               	movf	??_animation_green_arrow,w
  4037  0A7E  00A1               	movwf	??_animation_green_arrow+1
  4038  0A7F  0821               	movf	??_animation_green_arrow+1,w
  4039  0A80  00C0               	movwf	animation_green_arrow@row
  4040  0A81                     l2687:
  4041                           
  4042                           ;Main.c: 941: };Main.c: 943: input_data(row);
  4043  0A81  0840               	movf	animation_green_arrow@row,w
  4044  0A82  158A  2118  158A   	fcall	_input_data
  4045  0A85                     l2689:
  4046                           
  4047                           ;Main.c: 945: if (i == 3) {
  4048  0A85  3003               	movlw	3
  4049  0A86  1283               	bcf	3,5	;RP0=0, select bank0
  4050  0A87  1303               	bcf	3,6	;RP1=0, select bank0
  4051  0A88  062D               	xorwf	animation_green_arrow@i_233,w
  4052  0A89  042E               	iorwf	animation_green_arrow@i_233+1,w
  4053  0A8A  1D03               	btfss	3,2
  4054  0A8B  2A8D               	goto	u3171
  4055  0A8C  2A8E               	goto	u3170
  4056  0A8D                     u3171:
  4057  0A8D  2A92               	goto	l2693
  4058  0A8E                     u3170:
  4059  0A8E                     l2691:
  4060                           
  4061                           ;Main.c: 947: col = 24;
  4062  0A8E  3018               	movlw	24
  4063  0A8F  00A0               	movwf	??_animation_green_arrow
  4064  0A90  0820               	movf	??_animation_green_arrow,w
  4065  0A91  00BF               	movwf	animation_green_arrow@col
  4066  0A92                     l2693:
  4067                           
  4068                           ;Main.c: 948: };Main.c: 950: if (i == 2) {
  4069  0A92  3002               	movlw	2
  4070  0A93  062D               	xorwf	animation_green_arrow@i_233,w
  4071  0A94  042E               	iorwf	animation_green_arrow@i_233+1,w
  4072  0A95  1D03               	btfss	3,2
  4073  0A96  2A98               	goto	u3181
  4074  0A97  2A99               	goto	u3180
  4075  0A98                     u3181:
  4076  0A98  2A9D               	goto	l2697
  4077  0A99                     u3180:
  4078  0A99                     l2695:
  4079                           
  4080                           ;Main.c: 952: col = 60;
  4081  0A99  303C               	movlw	60
  4082  0A9A  00A0               	movwf	??_animation_green_arrow
  4083  0A9B  0820               	movf	??_animation_green_arrow,w
  4084  0A9C  00BF               	movwf	animation_green_arrow@col
  4085  0A9D                     l2697:
  4086                           
  4087                           ;Main.c: 954: };Main.c: 956: if (i == 1) {
  4088  0A9D  032D               	decf	animation_green_arrow@i_233,w
  4089  0A9E  042E               	iorwf	animation_green_arrow@i_233+1,w
  4090  0A9F  1D03               	btfss	3,2
  4091  0AA0  2AA2               	goto	u3191
  4092  0AA1  2AA3               	goto	u3190
  4093  0AA2                     u3191:
  4094  0AA2  2AA7               	goto	l2701
  4095  0AA3                     u3190:
  4096  0AA3                     l2699:
  4097                           
  4098                           ;Main.c: 958: col = 126;
  4099  0AA3  307E               	movlw	126
  4100  0AA4  00A0               	movwf	??_animation_green_arrow
  4101  0AA5  0820               	movf	??_animation_green_arrow,w
  4102  0AA6  00BF               	movwf	animation_green_arrow@col
  4103  0AA7                     l2701:
  4104                           
  4105                           ;Main.c: 960: };Main.c: 961: if (i == 0) {
  4106  0AA7  082D               	movf	animation_green_arrow@i_233,w
  4107  0AA8  042E               	iorwf	animation_green_arrow@i_233+1,w
  4108  0AA9  1D03               	btfss	3,2
  4109  0AAA  2AAC               	goto	u3201
  4110  0AAB  2AAD               	goto	u3200
  4111  0AAC                     u3201:
  4112  0AAC  2AB1               	goto	l2705
  4113  0AAD                     u3200:
  4114  0AAD                     l2703:
  4115                           
  4116                           ;Main.c: 963: col = 255;
  4117  0AAD  30FF               	movlw	255
  4118  0AAE  00A0               	movwf	??_animation_green_arrow
  4119  0AAF  0820               	movf	??_animation_green_arrow,w
  4120  0AB0  00BF               	movwf	animation_green_arrow@col
  4121  0AB1                     l2705:
  4122                           
  4123                           ;Main.c: 965: };Main.c: 966: input_data(col);
  4124  0AB1  083F               	movf	animation_green_arrow@col,w
  4125  0AB2  158A  2118  158A   	fcall	_input_data
  4126  0AB5                     l2707:
  4127                           
  4128                           ;Main.c: 967: input_data(0);
  4129  0AB5  3000               	movlw	0
  4130  0AB6  158A  2118  158A   	fcall	_input_data
  4131  0AB9                     l2709:
  4132                           
  4133                           ;Main.c: 969: latch_output();
  4134  0AB9  158A  20BB  158A   	fcall	_latch_output
  4135  0ABC                     l2711:
  4136  0ABC  3001               	movlw	1
  4137  0ABD  1283               	bcf	3,5	;RP0=0, select bank0
  4138  0ABE  1303               	bcf	3,6	;RP1=0, select bank0
  4139  0ABF  07AD               	addwf	animation_green_arrow@i_233,f
  4140  0AC0  1803               	skipnc
  4141  0AC1  0AAE               	incf	animation_green_arrow@i_233+1,f
  4142  0AC2  3000               	movlw	0
  4143  0AC3  07AE               	addwf	animation_green_arrow@i_233+1,f
  4144  0AC4  2A5C               	goto	l2679
  4145  0AC5                     l2715:
  4146  0AC5  3004               	movlw	4
  4147  0AC6  1283               	bcf	3,5	;RP0=0, select bank0
  4148  0AC7  1303               	bcf	3,6	;RP1=0, select bank0
  4149  0AC8  0244               	subwf	_timer_count,w
  4150  0AC9  1C03               	skipc
  4151  0ACA  2ACC               	goto	u3211
  4152  0ACB  2ACD               	goto	u3210
  4153  0ACC                     u3211:
  4154  0ACC  2A5A               	goto	l2677
  4155  0ACD                     u3210:
  4156  0ACD                     l2717:
  4157                           
  4158                           ;Main.c: 970: };Main.c: 971: };Main.c: 972: timer_count = 0;
  4159  0ACD  01C4               	clrf	_timer_count
  4160                           
  4161                           ;Main.c: 975: while (timer_count < 4) {
  4162  0ACE  2B41               	goto	l2759
  4163  0ACF                     l2719:
  4164                           
  4165                           ;Main.c: 976: for (int i = 0; i < 5; i++) {
  4166  0ACF  01B1               	clrf	animation_green_arrow@i_234
  4167  0AD0  01B2               	clrf	animation_green_arrow@i_234+1
  4168  0AD1                     l2721:
  4169  0AD1  0832               	movf	animation_green_arrow@i_234+1,w
  4170  0AD2  3A80               	xorlw	128
  4171  0AD3  00FF               	movwf	btemp+1
  4172  0AD4  3080               	movlw	128
  4173  0AD5  027F               	subwf	btemp+1,w
  4174  0AD6  1D03               	skipz
  4175  0AD7  2ADA               	goto	u3225
  4176  0AD8  3005               	movlw	5
  4177  0AD9  0231               	subwf	animation_green_arrow@i_234,w
  4178  0ADA                     u3225:
  4179  0ADA  1C03               	skipc
  4180  0ADB  2ADD               	goto	u3221
  4181  0ADC  2ADE               	goto	u3220
  4182  0ADD                     u3221:
  4183  0ADD  2ADF               	goto	l300
  4184  0ADE                     u3220:
  4185  0ADE  2B41               	goto	l2759
  4186  0ADF                     l300:
  4187                           
  4188                           ;Main.c: 977: row = 0b00000001;
  4189  0ADF  1283               	bcf	3,5	;RP0=0, select bank0
  4190  0AE0  1303               	bcf	3,6	;RP1=0, select bank0
  4191  0AE1  01C0               	clrf	animation_green_arrow@row
  4192  0AE2  0AC0               	incf	animation_green_arrow@row,f
  4193  0AE3                     l2725:
  4194                           
  4195                           ;Main.c: 979: if (i != 0) {
  4196  0AE3  0831               	movf	animation_green_arrow@i_234,w
  4197  0AE4  0432               	iorwf	animation_green_arrow@i_234+1,w
  4198  0AE5  1903               	btfsc	3,2
  4199  0AE6  2AE8               	goto	u3231
  4200  0AE7  2AE9               	goto	u3230
  4201  0AE8                     u3231:
  4202  0AE8  2AF6               	goto	l2729
  4203  0AE9                     u3230:
  4204  0AE9                     l2727:
  4205                           
  4206                           ;Main.c: 980: row = (row << i);
  4207  0AE9  0840               	movf	animation_green_arrow@row,w
  4208  0AEA  00A0               	movwf	??_animation_green_arrow
  4209  0AEB  0A31               	incf	animation_green_arrow@i_234,w
  4210  0AEC  2AEF               	goto	u3244
  4211  0AED                     u3245:
  4212  0AED  1003               	clrc
  4213  0AEE  0DA0               	rlf	??_animation_green_arrow,f
  4214  0AEF                     u3244:
  4215  0AEF  3EFF               	addlw	-1
  4216  0AF0  1D03               	skipz
  4217  0AF1  2AED               	goto	u3245
  4218  0AF2  0820               	movf	??_animation_green_arrow,w
  4219  0AF3  00A1               	movwf	??_animation_green_arrow+1
  4220  0AF4  0821               	movf	??_animation_green_arrow+1,w
  4221  0AF5  00C0               	movwf	animation_green_arrow@row
  4222  0AF6                     l2729:
  4223                           
  4224                           ;Main.c: 981: };Main.c: 983: input_data(row);
  4225  0AF6  0840               	movf	animation_green_arrow@row,w
  4226  0AF7  158A  2118  158A   	fcall	_input_data
  4227  0AFA                     l2731:
  4228                           
  4229                           ;Main.c: 985: if (i == 4) {
  4230  0AFA  3004               	movlw	4
  4231  0AFB  1283               	bcf	3,5	;RP0=0, select bank0
  4232  0AFC  1303               	bcf	3,6	;RP1=0, select bank0
  4233  0AFD  0631               	xorwf	animation_green_arrow@i_234,w
  4234  0AFE  0432               	iorwf	animation_green_arrow@i_234+1,w
  4235  0AFF  1D03               	btfss	3,2
  4236  0B00  2B02               	goto	u3251
  4237  0B01  2B03               	goto	u3250
  4238  0B02                     u3251:
  4239  0B02  2B07               	goto	l2735
  4240  0B03                     u3250:
  4241  0B03                     l2733:
  4242                           
  4243                           ;Main.c: 987: col = 24;
  4244  0B03  3018               	movlw	24
  4245  0B04  00A0               	movwf	??_animation_green_arrow
  4246  0B05  0820               	movf	??_animation_green_arrow,w
  4247  0B06  00BF               	movwf	animation_green_arrow@col
  4248  0B07                     l2735:
  4249                           
  4250                           ;Main.c: 988: };Main.c: 990: if (i == 3 || i == 0) {
  4251  0B07  3003               	movlw	3
  4252  0B08  0631               	xorwf	animation_green_arrow@i_234,w
  4253  0B09  0432               	iorwf	animation_green_arrow@i_234+1,w
  4254  0B0A  1903               	btfsc	3,2
  4255  0B0B  2B0D               	goto	u3261
  4256  0B0C  2B0E               	goto	u3260
  4257  0B0D                     u3261:
  4258  0B0D  2B14               	goto	l2739
  4259  0B0E                     u3260:
  4260  0B0E                     l2737:
  4261  0B0E  0831               	movf	animation_green_arrow@i_234,w
  4262  0B0F  0432               	iorwf	animation_green_arrow@i_234+1,w
  4263  0B10  1D03               	btfss	3,2
  4264  0B11  2B13               	goto	u3271
  4265  0B12  2B14               	goto	u3270
  4266  0B13                     u3271:
  4267  0B13  2B18               	goto	l2741
  4268  0B14                     u3270:
  4269  0B14                     l2739:
  4270                           
  4271                           ;Main.c: 992: col = 60;
  4272  0B14  303C               	movlw	60
  4273  0B15  00A0               	movwf	??_animation_green_arrow
  4274  0B16  0820               	movf	??_animation_green_arrow,w
  4275  0B17  00BF               	movwf	animation_green_arrow@col
  4276  0B18                     l2741:
  4277                           
  4278                           ;Main.c: 994: };Main.c: 996: if (i == 2) {
  4279  0B18  3002               	movlw	2
  4280  0B19  0631               	xorwf	animation_green_arrow@i_234,w
  4281  0B1A  0432               	iorwf	animation_green_arrow@i_234+1,w
  4282  0B1B  1D03               	btfss	3,2
  4283  0B1C  2B1E               	goto	u3281
  4284  0B1D  2B1F               	goto	u3280
  4285  0B1E                     u3281:
  4286  0B1E  2B23               	goto	l2745
  4287  0B1F                     u3280:
  4288  0B1F                     l2743:
  4289                           
  4290                           ;Main.c: 998: col = 126;
  4291  0B1F  307E               	movlw	126
  4292  0B20  00A0               	movwf	??_animation_green_arrow
  4293  0B21  0820               	movf	??_animation_green_arrow,w
  4294  0B22  00BF               	movwf	animation_green_arrow@col
  4295  0B23                     l2745:
  4296                           
  4297                           ;Main.c: 1000: };Main.c: 1001: if (i == 1) {
  4298  0B23  0331               	decf	animation_green_arrow@i_234,w
  4299  0B24  0432               	iorwf	animation_green_arrow@i_234+1,w
  4300  0B25  1D03               	btfss	3,2
  4301  0B26  2B28               	goto	u3291
  4302  0B27  2B29               	goto	u3290
  4303  0B28                     u3291:
  4304  0B28  2B2D               	goto	l2749
  4305  0B29                     u3290:
  4306  0B29                     l2747:
  4307                           
  4308                           ;Main.c: 1003: col = 255;
  4309  0B29  30FF               	movlw	255
  4310  0B2A  00A0               	movwf	??_animation_green_arrow
  4311  0B2B  0820               	movf	??_animation_green_arrow,w
  4312  0B2C  00BF               	movwf	animation_green_arrow@col
  4313  0B2D                     l2749:
  4314                           
  4315                           ;Main.c: 1005: };Main.c: 1006: input_data(col);
  4316  0B2D  083F               	movf	animation_green_arrow@col,w
  4317  0B2E  158A  2118  158A   	fcall	_input_data
  4318  0B31                     l2751:
  4319                           
  4320                           ;Main.c: 1007: input_data(0);
  4321  0B31  3000               	movlw	0
  4322  0B32  158A  2118  158A   	fcall	_input_data
  4323  0B35                     l2753:
  4324                           
  4325                           ;Main.c: 1009: latch_output();
  4326  0B35  158A  20BB  158A   	fcall	_latch_output
  4327  0B38                     l2755:
  4328  0B38  3001               	movlw	1
  4329  0B39  1283               	bcf	3,5	;RP0=0, select bank0
  4330  0B3A  1303               	bcf	3,6	;RP1=0, select bank0
  4331  0B3B  07B1               	addwf	animation_green_arrow@i_234,f
  4332  0B3C  1803               	skipnc
  4333  0B3D  0AB2               	incf	animation_green_arrow@i_234+1,f
  4334  0B3E  3000               	movlw	0
  4335  0B3F  07B2               	addwf	animation_green_arrow@i_234+1,f
  4336  0B40  2AD1               	goto	l2721
  4337  0B41                     l2759:
  4338  0B41  3004               	movlw	4
  4339  0B42  1283               	bcf	3,5	;RP0=0, select bank0
  4340  0B43  1303               	bcf	3,6	;RP1=0, select bank0
  4341  0B44  0244               	subwf	_timer_count,w
  4342  0B45  1C03               	skipc
  4343  0B46  2B48               	goto	u3301
  4344  0B47  2B49               	goto	u3300
  4345  0B48                     u3301:
  4346  0B48  2ACF               	goto	l2719
  4347  0B49                     u3300:
  4348  0B49                     l2761:
  4349                           
  4350                           ;Main.c: 1010: };Main.c: 1011: };Main.c: 1012: timer_count = 0;
  4351  0B49  01C4               	clrf	_timer_count
  4352                           
  4353                           ;Main.c: 1015: while (timer_count < 4) {
  4354  0B4A  2BC4               	goto	l2805
  4355  0B4B                     l2763:
  4356                           
  4357                           ;Main.c: 1016: for (int i = 0; i < 6; i++) {
  4358  0B4B  01B5               	clrf	animation_green_arrow@i_235
  4359  0B4C  01B6               	clrf	animation_green_arrow@i_235+1
  4360  0B4D                     l2765:
  4361  0B4D  0836               	movf	animation_green_arrow@i_235+1,w
  4362  0B4E  3A80               	xorlw	128
  4363  0B4F  00FF               	movwf	btemp+1
  4364  0B50  3080               	movlw	128
  4365  0B51  027F               	subwf	btemp+1,w
  4366  0B52  1D03               	skipz
  4367  0B53  2B56               	goto	u3315
  4368  0B54  3006               	movlw	6
  4369  0B55  0235               	subwf	animation_green_arrow@i_235,w
  4370  0B56                     u3315:
  4371  0B56  1C03               	skipc
  4372  0B57  2B59               	goto	u3311
  4373  0B58  2B5A               	goto	u3310
  4374  0B59                     u3311:
  4375  0B59  2B5B               	goto	l312
  4376  0B5A                     u3310:
  4377  0B5A  2BC4               	goto	l2805
  4378  0B5B                     l312:
  4379                           
  4380                           ;Main.c: 1017: row = 0b00000001;
  4381  0B5B  1283               	bcf	3,5	;RP0=0, select bank0
  4382  0B5C  1303               	bcf	3,6	;RP1=0, select bank0
  4383  0B5D  01C0               	clrf	animation_green_arrow@row
  4384  0B5E  0AC0               	incf	animation_green_arrow@row,f
  4385  0B5F                     l2769:
  4386                           
  4387                           ;Main.c: 1019: if (i != 0) {
  4388  0B5F  0835               	movf	animation_green_arrow@i_235,w
  4389  0B60  0436               	iorwf	animation_green_arrow@i_235+1,w
  4390  0B61  1903               	btfsc	3,2
  4391  0B62  2B64               	goto	u3321
  4392  0B63  2B65               	goto	u3320
  4393  0B64                     u3321:
  4394  0B64  2B72               	goto	l2773
  4395  0B65                     u3320:
  4396  0B65                     l2771:
  4397                           
  4398                           ;Main.c: 1020: row = (row << i);
  4399  0B65  0840               	movf	animation_green_arrow@row,w
  4400  0B66  00A0               	movwf	??_animation_green_arrow
  4401  0B67  0A35               	incf	animation_green_arrow@i_235,w
  4402  0B68  2B6B               	goto	u3334
  4403  0B69                     u3335:
  4404  0B69  1003               	clrc
  4405  0B6A  0DA0               	rlf	??_animation_green_arrow,f
  4406  0B6B                     u3334:
  4407  0B6B  3EFF               	addlw	-1
  4408  0B6C  1D03               	skipz
  4409  0B6D  2B69               	goto	u3335
  4410  0B6E  0820               	movf	??_animation_green_arrow,w
  4411  0B6F  00A1               	movwf	??_animation_green_arrow+1
  4412  0B70  0821               	movf	??_animation_green_arrow+1,w
  4413  0B71  00C0               	movwf	animation_green_arrow@row
  4414  0B72                     l2773:
  4415                           
  4416                           ;Main.c: 1021: };Main.c: 1023: input_data(row);
  4417  0B72  0840               	movf	animation_green_arrow@row,w
  4418  0B73  158A  2118  158A   	fcall	_input_data
  4419  0B76                     l2775:
  4420                           
  4421                           ;Main.c: 1025: if (i == 5) {
  4422  0B76  3005               	movlw	5
  4423  0B77  1283               	bcf	3,5	;RP0=0, select bank0
  4424  0B78  1303               	bcf	3,6	;RP1=0, select bank0
  4425  0B79  0635               	xorwf	animation_green_arrow@i_235,w
  4426  0B7A  0436               	iorwf	animation_green_arrow@i_235+1,w
  4427  0B7B  1D03               	btfss	3,2
  4428  0B7C  2B7E               	goto	u3341
  4429  0B7D  2B7F               	goto	u3340
  4430  0B7E                     u3341:
  4431  0B7E  2B83               	goto	l2779
  4432  0B7F                     u3340:
  4433  0B7F                     l2777:
  4434                           
  4435                           ;Main.c: 1027: col = 24;
  4436  0B7F  3018               	movlw	24
  4437  0B80  00A0               	movwf	??_animation_green_arrow
  4438  0B81  0820               	movf	??_animation_green_arrow,w
  4439  0B82  00BF               	movwf	animation_green_arrow@col
  4440  0B83                     l2779:
  4441                           
  4442                           ;Main.c: 1028: };Main.c: 1030: if (i == 4 || i == 0 || i == 1) {
  4443  0B83  3004               	movlw	4
  4444  0B84  0635               	xorwf	animation_green_arrow@i_235,w
  4445  0B85  0436               	iorwf	animation_green_arrow@i_235+1,w
  4446  0B86  1903               	btfsc	3,2
  4447  0B87  2B89               	goto	u3351
  4448  0B88  2B8A               	goto	u3350
  4449  0B89                     u3351:
  4450  0B89  2B96               	goto	l2785
  4451  0B8A                     u3350:
  4452  0B8A                     l2781:
  4453  0B8A  0835               	movf	animation_green_arrow@i_235,w
  4454  0B8B  0436               	iorwf	animation_green_arrow@i_235+1,w
  4455  0B8C  1903               	btfsc	3,2
  4456  0B8D  2B8F               	goto	u3361
  4457  0B8E  2B90               	goto	u3360
  4458  0B8F                     u3361:
  4459  0B8F  2B96               	goto	l2785
  4460  0B90                     u3360:
  4461  0B90                     l2783:
  4462  0B90  0335               	decf	animation_green_arrow@i_235,w
  4463  0B91  0436               	iorwf	animation_green_arrow@i_235+1,w
  4464  0B92  1D03               	btfss	3,2
  4465  0B93  2B95               	goto	u3371
  4466  0B94  2B96               	goto	u3370
  4467  0B95                     u3371:
  4468  0B95  2B9A               	goto	l2787
  4469  0B96                     u3370:
  4470  0B96                     l2785:
  4471                           
  4472                           ;Main.c: 1032: col = 60;
  4473  0B96  303C               	movlw	60
  4474  0B97  00A0               	movwf	??_animation_green_arrow
  4475  0B98  0820               	movf	??_animation_green_arrow,w
  4476  0B99  00BF               	movwf	animation_green_arrow@col
  4477  0B9A                     l2787:
  4478                           
  4479                           ;Main.c: 1034: };Main.c: 1036: if (i == 3) {
  4480  0B9A  3003               	movlw	3
  4481  0B9B  0635               	xorwf	animation_green_arrow@i_235,w
  4482  0B9C  0436               	iorwf	animation_green_arrow@i_235+1,w
  4483  0B9D  1D03               	btfss	3,2
  4484  0B9E  2BA0               	goto	u3381
  4485  0B9F  2BA1               	goto	u3380
  4486  0BA0                     u3381:
  4487  0BA0  2BA5               	goto	l2791
  4488  0BA1                     u3380:
  4489  0BA1                     l2789:
  4490                           
  4491                           ;Main.c: 1038: col = 126;
  4492  0BA1  307E               	movlw	126
  4493  0BA2  00A0               	movwf	??_animation_green_arrow
  4494  0BA3  0820               	movf	??_animation_green_arrow,w
  4495  0BA4  00BF               	movwf	animation_green_arrow@col
  4496  0BA5                     l2791:
  4497                           
  4498                           ;Main.c: 1040: };Main.c: 1041: if (i == 2) {
  4499  0BA5  3002               	movlw	2
  4500  0BA6  0635               	xorwf	animation_green_arrow@i_235,w
  4501  0BA7  0436               	iorwf	animation_green_arrow@i_235+1,w
  4502  0BA8  1D03               	btfss	3,2
  4503  0BA9  2BAB               	goto	u3391
  4504  0BAA  2BAC               	goto	u3390
  4505  0BAB                     u3391:
  4506  0BAB  2BB0               	goto	l2795
  4507  0BAC                     u3390:
  4508  0BAC                     l2793:
  4509                           
  4510                           ;Main.c: 1043: col = 255;
  4511  0BAC  30FF               	movlw	255
  4512  0BAD  00A0               	movwf	??_animation_green_arrow
  4513  0BAE  0820               	movf	??_animation_green_arrow,w
  4514  0BAF  00BF               	movwf	animation_green_arrow@col
  4515  0BB0                     l2795:
  4516                           
  4517                           ;Main.c: 1045: };Main.c: 1046: input_data(col);
  4518  0BB0  083F               	movf	animation_green_arrow@col,w
  4519  0BB1  158A  2118  158A   	fcall	_input_data
  4520  0BB4                     l2797:
  4521                           
  4522                           ;Main.c: 1047: input_data(0);
  4523  0BB4  3000               	movlw	0
  4524  0BB5  158A  2118  158A   	fcall	_input_data
  4525  0BB8                     l2799:
  4526                           
  4527                           ;Main.c: 1049: latch_output();
  4528  0BB8  158A  20BB  158A   	fcall	_latch_output
  4529  0BBB                     l2801:
  4530  0BBB  3001               	movlw	1
  4531  0BBC  1283               	bcf	3,5	;RP0=0, select bank0
  4532  0BBD  1303               	bcf	3,6	;RP1=0, select bank0
  4533  0BBE  07B5               	addwf	animation_green_arrow@i_235,f
  4534  0BBF  1803               	skipnc
  4535  0BC0  0AB6               	incf	animation_green_arrow@i_235+1,f
  4536  0BC1  3000               	movlw	0
  4537  0BC2  07B6               	addwf	animation_green_arrow@i_235+1,f
  4538  0BC3  2B4D               	goto	l2765
  4539  0BC4                     l2805:
  4540  0BC4  3004               	movlw	4
  4541  0BC5  1283               	bcf	3,5	;RP0=0, select bank0
  4542  0BC6  1303               	bcf	3,6	;RP1=0, select bank0
  4543  0BC7  0244               	subwf	_timer_count,w
  4544  0BC8  1C03               	skipc
  4545  0BC9  2BCB               	goto	u3401
  4546  0BCA  2BCC               	goto	u3400
  4547  0BCB                     u3401:
  4548  0BCB  2B4B               	goto	l2763
  4549  0BCC                     u3400:
  4550  0BCC                     l2807:
  4551                           
  4552                           ;Main.c: 1050: };Main.c: 1051: };Main.c: 1052: timer_count = 0;
  4553  0BCC  01C4               	clrf	_timer_count
  4554                           
  4555                           ;Main.c: 1055: while (timer_count < 5) {
  4556  0BCD  2C4E               	goto	l2853
  4557  0BCE                     l2809:
  4558                           
  4559                           ;Main.c: 1056: for (int i = 0; i < 7; i++) {
  4560  0BCE  01B9               	clrf	animation_green_arrow@i_236
  4561  0BCF  01BA               	clrf	animation_green_arrow@i_236+1
  4562  0BD0                     l2811:
  4563  0BD0  083A               	movf	animation_green_arrow@i_236+1,w
  4564  0BD1  3A80               	xorlw	128
  4565  0BD2  00FF               	movwf	btemp+1
  4566  0BD3  3080               	movlw	128
  4567  0BD4  027F               	subwf	btemp+1,w
  4568  0BD5  1D03               	skipz
  4569  0BD6  2BD9               	goto	u3415
  4570  0BD7  3007               	movlw	7
  4571  0BD8  0239               	subwf	animation_green_arrow@i_236,w
  4572  0BD9                     u3415:
  4573  0BD9  1C03               	skipc
  4574  0BDA  2BDC               	goto	u3411
  4575  0BDB  2BDD               	goto	u3410
  4576  0BDC                     u3411:
  4577  0BDC  2BDE               	goto	l324
  4578  0BDD                     u3410:
  4579  0BDD  2C4E               	goto	l2853
  4580  0BDE                     l324:
  4581                           
  4582                           ;Main.c: 1057: row = 0b00000001;
  4583  0BDE  1283               	bcf	3,5	;RP0=0, select bank0
  4584  0BDF  1303               	bcf	3,6	;RP1=0, select bank0
  4585  0BE0  01C0               	clrf	animation_green_arrow@row
  4586  0BE1  0AC0               	incf	animation_green_arrow@row,f
  4587  0BE2                     l2815:
  4588                           
  4589                           ;Main.c: 1059: if (i != 0) {
  4590  0BE2  0839               	movf	animation_green_arrow@i_236,w
  4591  0BE3  043A               	iorwf	animation_green_arrow@i_236+1,w
  4592  0BE4  1903               	btfsc	3,2
  4593  0BE5  2BE7               	goto	u3421
  4594  0BE6  2BE8               	goto	u3420
  4595  0BE7                     u3421:
  4596  0BE7  2BF5               	goto	l2819
  4597  0BE8                     u3420:
  4598  0BE8                     l2817:
  4599                           
  4600                           ;Main.c: 1060: row = (row << i);
  4601  0BE8  0840               	movf	animation_green_arrow@row,w
  4602  0BE9  00A0               	movwf	??_animation_green_arrow
  4603  0BEA  0A39               	incf	animation_green_arrow@i_236,w
  4604  0BEB  2BEE               	goto	u3434
  4605  0BEC                     u3435:
  4606  0BEC  1003               	clrc
  4607  0BED  0DA0               	rlf	??_animation_green_arrow,f
  4608  0BEE                     u3434:
  4609  0BEE  3EFF               	addlw	-1
  4610  0BEF  1D03               	skipz
  4611  0BF0  2BEC               	goto	u3435
  4612  0BF1  0820               	movf	??_animation_green_arrow,w
  4613  0BF2  00A1               	movwf	??_animation_green_arrow+1
  4614  0BF3  0821               	movf	??_animation_green_arrow+1,w
  4615  0BF4  00C0               	movwf	animation_green_arrow@row
  4616  0BF5                     l2819:
  4617                           
  4618                           ;Main.c: 1061: };Main.c: 1063: input_data(row);
  4619  0BF5  0840               	movf	animation_green_arrow@row,w
  4620  0BF6  158A  2118  158A   	fcall	_input_data
  4621  0BF9                     l2821:
  4622                           
  4623                           ;Main.c: 1065: if (i == 6) {
  4624  0BF9  3006               	movlw	6
  4625  0BFA  1283               	bcf	3,5	;RP0=0, select bank0
  4626  0BFB  1303               	bcf	3,6	;RP1=0, select bank0
  4627  0BFC  0639               	xorwf	animation_green_arrow@i_236,w
  4628  0BFD  043A               	iorwf	animation_green_arrow@i_236+1,w
  4629  0BFE  1D03               	btfss	3,2
  4630  0BFF  2C01               	goto	u3441
  4631  0C00  2C02               	goto	u3440
  4632  0C01                     u3441:
  4633  0C01  2C06               	goto	l2825
  4634  0C02                     u3440:
  4635  0C02                     l2823:
  4636                           
  4637                           ;Main.c: 1067: col = 24;
  4638  0C02  3018               	movlw	24
  4639  0C03  00A0               	movwf	??_animation_green_arrow
  4640  0C04  0820               	movf	??_animation_green_arrow,w
  4641  0C05  00BF               	movwf	animation_green_arrow@col
  4642  0C06                     l2825:
  4643                           
  4644                           ;Main.c: 1068: };Main.c: 1070: if (i == 5 || i == 0 || i == 1 || i == 2) {
  4645  0C06  3005               	movlw	5
  4646  0C07  0639               	xorwf	animation_green_arrow@i_236,w
  4647  0C08  043A               	iorwf	animation_green_arrow@i_236+1,w
  4648  0C09  1903               	btfsc	3,2
  4649  0C0A  2C0C               	goto	u3451
  4650  0C0B  2C0D               	goto	u3450
  4651  0C0C                     u3451:
  4652  0C0C  2C20               	goto	l2833
  4653  0C0D                     u3450:
  4654  0C0D                     l2827:
  4655  0C0D  0839               	movf	animation_green_arrow@i_236,w
  4656  0C0E  043A               	iorwf	animation_green_arrow@i_236+1,w
  4657  0C0F  1903               	btfsc	3,2
  4658  0C10  2C12               	goto	u3461
  4659  0C11  2C13               	goto	u3460
  4660  0C12                     u3461:
  4661  0C12  2C20               	goto	l2833
  4662  0C13                     u3460:
  4663  0C13                     l2829:
  4664  0C13  0339               	decf	animation_green_arrow@i_236,w
  4665  0C14  043A               	iorwf	animation_green_arrow@i_236+1,w
  4666  0C15  1903               	btfsc	3,2
  4667  0C16  2C18               	goto	u3471
  4668  0C17  2C19               	goto	u3470
  4669  0C18                     u3471:
  4670  0C18  2C20               	goto	l2833
  4671  0C19                     u3470:
  4672  0C19                     l2831:
  4673  0C19  3002               	movlw	2
  4674  0C1A  0639               	xorwf	animation_green_arrow@i_236,w
  4675  0C1B  043A               	iorwf	animation_green_arrow@i_236+1,w
  4676  0C1C  1D03               	btfss	3,2
  4677  0C1D  2C1F               	goto	u3481
  4678  0C1E  2C20               	goto	u3480
  4679  0C1F                     u3481:
  4680  0C1F  2C24               	goto	l2835
  4681  0C20                     u3480:
  4682  0C20                     l2833:
  4683                           
  4684                           ;Main.c: 1072: col = 60;
  4685  0C20  303C               	movlw	60
  4686  0C21  00A0               	movwf	??_animation_green_arrow
  4687  0C22  0820               	movf	??_animation_green_arrow,w
  4688  0C23  00BF               	movwf	animation_green_arrow@col
  4689  0C24                     l2835:
  4690                           
  4691                           ;Main.c: 1074: };Main.c: 1076: if (i == 4) {
  4692  0C24  3004               	movlw	4
  4693  0C25  0639               	xorwf	animation_green_arrow@i_236,w
  4694  0C26  043A               	iorwf	animation_green_arrow@i_236+1,w
  4695  0C27  1D03               	btfss	3,2
  4696  0C28  2C2A               	goto	u3491
  4697  0C29  2C2B               	goto	u3490
  4698  0C2A                     u3491:
  4699  0C2A  2C2F               	goto	l2839
  4700  0C2B                     u3490:
  4701  0C2B                     l2837:
  4702                           
  4703                           ;Main.c: 1078: col = 126;
  4704  0C2B  307E               	movlw	126
  4705  0C2C  00A0               	movwf	??_animation_green_arrow
  4706  0C2D  0820               	movf	??_animation_green_arrow,w
  4707  0C2E  00BF               	movwf	animation_green_arrow@col
  4708  0C2F                     l2839:
  4709                           
  4710                           ;Main.c: 1080: };Main.c: 1081: if (i == 3) {
  4711  0C2F  3003               	movlw	3
  4712  0C30  0639               	xorwf	animation_green_arrow@i_236,w
  4713  0C31  043A               	iorwf	animation_green_arrow@i_236+1,w
  4714  0C32  1D03               	btfss	3,2
  4715  0C33  2C35               	goto	u3501
  4716  0C34  2C36               	goto	u3500
  4717  0C35                     u3501:
  4718  0C35  2C3A               	goto	l2843
  4719  0C36                     u3500:
  4720  0C36                     l2841:
  4721                           
  4722                           ;Main.c: 1083: col = 255;
  4723  0C36  30FF               	movlw	255
  4724  0C37  00A0               	movwf	??_animation_green_arrow
  4725  0C38  0820               	movf	??_animation_green_arrow,w
  4726  0C39  00BF               	movwf	animation_green_arrow@col
  4727  0C3A                     l2843:
  4728                           
  4729                           ;Main.c: 1085: };Main.c: 1086: input_data(col);
  4730  0C3A  083F               	movf	animation_green_arrow@col,w
  4731  0C3B  158A  2118  158A   	fcall	_input_data
  4732  0C3E                     l2845:
  4733                           
  4734                           ;Main.c: 1087: input_data(0);
  4735  0C3E  3000               	movlw	0
  4736  0C3F  158A  2118  158A   	fcall	_input_data
  4737  0C42                     l2847:
  4738                           
  4739                           ;Main.c: 1089: latch_output();
  4740  0C42  158A  20BB  158A   	fcall	_latch_output
  4741  0C45                     l2849:
  4742  0C45  3001               	movlw	1
  4743  0C46  1283               	bcf	3,5	;RP0=0, select bank0
  4744  0C47  1303               	bcf	3,6	;RP1=0, select bank0
  4745  0C48  07B9               	addwf	animation_green_arrow@i_236,f
  4746  0C49  1803               	skipnc
  4747  0C4A  0ABA               	incf	animation_green_arrow@i_236+1,f
  4748  0C4B  3000               	movlw	0
  4749  0C4C  07BA               	addwf	animation_green_arrow@i_236+1,f
  4750  0C4D  2BD0               	goto	l2811
  4751  0C4E                     l2853:
  4752  0C4E  3005               	movlw	5
  4753  0C4F  1283               	bcf	3,5	;RP0=0, select bank0
  4754  0C50  1303               	bcf	3,6	;RP1=0, select bank0
  4755  0C51  0244               	subwf	_timer_count,w
  4756  0C52  1C03               	skipc
  4757  0C53  2C55               	goto	u3511
  4758  0C54  2C56               	goto	u3510
  4759  0C55                     u3511:
  4760  0C55  2BCE               	goto	l2809
  4761  0C56                     u3510:
  4762  0C56                     l2855:
  4763                           
  4764                           ;Main.c: 1090: };Main.c: 1091: };Main.c: 1092: timer_count = 0;
  4765  0C56  01C4               	clrf	_timer_count
  4766                           
  4767                           ;Main.c: 1095: while (timer_count < 5) {
  4768  0C57  2CDF               	goto	l2903
  4769  0C58                     l2857:
  4770                           
  4771                           ;Main.c: 1096: for (int i = 0; i < 8; i++) {
  4772  0C58  01BD               	clrf	animation_green_arrow@i_237
  4773  0C59  01BE               	clrf	animation_green_arrow@i_237+1
  4774  0C5A                     l2859:
  4775  0C5A  083E               	movf	animation_green_arrow@i_237+1,w
  4776  0C5B  3A80               	xorlw	128
  4777  0C5C  00FF               	movwf	btemp+1
  4778  0C5D  3080               	movlw	128
  4779  0C5E  027F               	subwf	btemp+1,w
  4780  0C5F  1D03               	skipz
  4781  0C60  2C63               	goto	u3525
  4782  0C61  3008               	movlw	8
  4783  0C62  023D               	subwf	animation_green_arrow@i_237,w
  4784  0C63                     u3525:
  4785  0C63  1C03               	skipc
  4786  0C64  2C66               	goto	u3521
  4787  0C65  2C67               	goto	u3520
  4788  0C66                     u3521:
  4789  0C66  2C68               	goto	l336
  4790  0C67                     u3520:
  4791  0C67  2CDF               	goto	l2903
  4792  0C68                     l336:
  4793                           
  4794                           ;Main.c: 1097: row = 0b00000001;
  4795  0C68  1283               	bcf	3,5	;RP0=0, select bank0
  4796  0C69  1303               	bcf	3,6	;RP1=0, select bank0
  4797  0C6A  01C0               	clrf	animation_green_arrow@row
  4798  0C6B  0AC0               	incf	animation_green_arrow@row,f
  4799  0C6C                     l2863:
  4800                           
  4801                           ;Main.c: 1099: if (i != 0) {
  4802  0C6C  083D               	movf	animation_green_arrow@i_237,w
  4803  0C6D  043E               	iorwf	animation_green_arrow@i_237+1,w
  4804  0C6E  1903               	btfsc	3,2
  4805  0C6F  2C71               	goto	u3531
  4806  0C70  2C72               	goto	u3530
  4807  0C71                     u3531:
  4808  0C71  2C7F               	goto	l2867
  4809  0C72                     u3530:
  4810  0C72                     l2865:
  4811                           
  4812                           ;Main.c: 1100: row = (row << i);
  4813  0C72  0840               	movf	animation_green_arrow@row,w
  4814  0C73  00A0               	movwf	??_animation_green_arrow
  4815  0C74  0A3D               	incf	animation_green_arrow@i_237,w
  4816  0C75  2C78               	goto	u3544
  4817  0C76                     u3545:
  4818  0C76  1003               	clrc
  4819  0C77  0DA0               	rlf	??_animation_green_arrow,f
  4820  0C78                     u3544:
  4821  0C78  3EFF               	addlw	-1
  4822  0C79  1D03               	skipz
  4823  0C7A  2C76               	goto	u3545
  4824  0C7B  0820               	movf	??_animation_green_arrow,w
  4825  0C7C  00A1               	movwf	??_animation_green_arrow+1
  4826  0C7D  0821               	movf	??_animation_green_arrow+1,w
  4827  0C7E  00C0               	movwf	animation_green_arrow@row
  4828  0C7F                     l2867:
  4829                           
  4830                           ;Main.c: 1101: };Main.c: 1103: input_data(row);
  4831  0C7F  0840               	movf	animation_green_arrow@row,w
  4832  0C80  158A  2118  158A   	fcall	_input_data
  4833  0C83                     l2869:
  4834                           
  4835                           ;Main.c: 1105: if (i == 7) {
  4836  0C83  3007               	movlw	7
  4837  0C84  1283               	bcf	3,5	;RP0=0, select bank0
  4838  0C85  1303               	bcf	3,6	;RP1=0, select bank0
  4839  0C86  063D               	xorwf	animation_green_arrow@i_237,w
  4840  0C87  043E               	iorwf	animation_green_arrow@i_237+1,w
  4841  0C88  1D03               	btfss	3,2
  4842  0C89  2C8B               	goto	u3551
  4843  0C8A  2C8C               	goto	u3550
  4844  0C8B                     u3551:
  4845  0C8B  2C90               	goto	l2873
  4846  0C8C                     u3550:
  4847  0C8C                     l2871:
  4848                           
  4849                           ;Main.c: 1107: col = 24;
  4850  0C8C  3018               	movlw	24
  4851  0C8D  00A0               	movwf	??_animation_green_arrow
  4852  0C8E  0820               	movf	??_animation_green_arrow,w
  4853  0C8F  00BF               	movwf	animation_green_arrow@col
  4854  0C90                     l2873:
  4855                           
  4856                           ;Main.c: 1108: };Main.c: 1110: if (i == 6 || i == 0 || i == 1 || i == 2 || i == 3) {
  4857  0C90  3006               	movlw	6
  4858  0C91  063D               	xorwf	animation_green_arrow@i_237,w
  4859  0C92  043E               	iorwf	animation_green_arrow@i_237+1,w
  4860  0C93  1903               	btfsc	3,2
  4861  0C94  2C96               	goto	u3561
  4862  0C95  2C97               	goto	u3560
  4863  0C96                     u3561:
  4864  0C96  2CB1               	goto	l2883
  4865  0C97                     u3560:
  4866  0C97                     l2875:
  4867  0C97  083D               	movf	animation_green_arrow@i_237,w
  4868  0C98  043E               	iorwf	animation_green_arrow@i_237+1,w
  4869  0C99  1903               	btfsc	3,2
  4870  0C9A  2C9C               	goto	u3571
  4871  0C9B  2C9D               	goto	u3570
  4872  0C9C                     u3571:
  4873  0C9C  2CB1               	goto	l2883
  4874  0C9D                     u3570:
  4875  0C9D                     l2877:
  4876  0C9D  033D               	decf	animation_green_arrow@i_237,w
  4877  0C9E  043E               	iorwf	animation_green_arrow@i_237+1,w
  4878  0C9F  1903               	btfsc	3,2
  4879  0CA0  2CA2               	goto	u3581
  4880  0CA1  2CA3               	goto	u3580
  4881  0CA2                     u3581:
  4882  0CA2  2CB1               	goto	l2883
  4883  0CA3                     u3580:
  4884  0CA3                     l2879:
  4885  0CA3  3002               	movlw	2
  4886  0CA4  063D               	xorwf	animation_green_arrow@i_237,w
  4887  0CA5  043E               	iorwf	animation_green_arrow@i_237+1,w
  4888  0CA6  1903               	btfsc	3,2
  4889  0CA7  2CA9               	goto	u3591
  4890  0CA8  2CAA               	goto	u3590
  4891  0CA9                     u3591:
  4892  0CA9  2CB1               	goto	l2883
  4893  0CAA                     u3590:
  4894  0CAA                     l2881:
  4895  0CAA  3003               	movlw	3
  4896  0CAB  063D               	xorwf	animation_green_arrow@i_237,w
  4897  0CAC  043E               	iorwf	animation_green_arrow@i_237+1,w
  4898  0CAD  1D03               	btfss	3,2
  4899  0CAE  2CB0               	goto	u3601
  4900  0CAF  2CB1               	goto	u3600
  4901  0CB0                     u3601:
  4902  0CB0  2CB5               	goto	l2885
  4903  0CB1                     u3600:
  4904  0CB1                     l2883:
  4905                           
  4906                           ;Main.c: 1112: col = 60;
  4907  0CB1  303C               	movlw	60
  4908  0CB2  00A0               	movwf	??_animation_green_arrow
  4909  0CB3  0820               	movf	??_animation_green_arrow,w
  4910  0CB4  00BF               	movwf	animation_green_arrow@col
  4911  0CB5                     l2885:
  4912                           
  4913                           ;Main.c: 1114: };Main.c: 1116: if (i == 5) {
  4914  0CB5  3005               	movlw	5
  4915  0CB6  063D               	xorwf	animation_green_arrow@i_237,w
  4916  0CB7  043E               	iorwf	animation_green_arrow@i_237+1,w
  4917  0CB8  1D03               	btfss	3,2
  4918  0CB9  2CBB               	goto	u3611
  4919  0CBA  2CBC               	goto	u3610
  4920  0CBB                     u3611:
  4921  0CBB  2CC0               	goto	l2889
  4922  0CBC                     u3610:
  4923  0CBC                     l2887:
  4924                           
  4925                           ;Main.c: 1118: col = 126;
  4926  0CBC  307E               	movlw	126
  4927  0CBD  00A0               	movwf	??_animation_green_arrow
  4928  0CBE  0820               	movf	??_animation_green_arrow,w
  4929  0CBF  00BF               	movwf	animation_green_arrow@col
  4930  0CC0                     l2889:
  4931                           
  4932                           ;Main.c: 1120: };Main.c: 1121: if (i == 4) {
  4933  0CC0  3004               	movlw	4
  4934  0CC1  063D               	xorwf	animation_green_arrow@i_237,w
  4935  0CC2  043E               	iorwf	animation_green_arrow@i_237+1,w
  4936  0CC3  1D03               	btfss	3,2
  4937  0CC4  2CC6               	goto	u3621
  4938  0CC5  2CC7               	goto	u3620
  4939  0CC6                     u3621:
  4940  0CC6  2CCB               	goto	l2893
  4941  0CC7                     u3620:
  4942  0CC7                     l2891:
  4943                           
  4944                           ;Main.c: 1123: col = 255;
  4945  0CC7  30FF               	movlw	255
  4946  0CC8  00A0               	movwf	??_animation_green_arrow
  4947  0CC9  0820               	movf	??_animation_green_arrow,w
  4948  0CCA  00BF               	movwf	animation_green_arrow@col
  4949  0CCB                     l2893:
  4950                           
  4951                           ;Main.c: 1125: };Main.c: 1126: input_data(col);
  4952  0CCB  083F               	movf	animation_green_arrow@col,w
  4953  0CCC  158A  2118  158A   	fcall	_input_data
  4954  0CCF                     l2895:
  4955                           
  4956                           ;Main.c: 1127: input_data(0);
  4957  0CCF  3000               	movlw	0
  4958  0CD0  158A  2118  158A   	fcall	_input_data
  4959  0CD3                     l2897:
  4960                           
  4961                           ;Main.c: 1129: latch_output();
  4962  0CD3  158A  20BB  158A   	fcall	_latch_output
  4963  0CD6                     l2899:
  4964  0CD6  3001               	movlw	1
  4965  0CD7  1283               	bcf	3,5	;RP0=0, select bank0
  4966  0CD8  1303               	bcf	3,6	;RP1=0, select bank0
  4967  0CD9  07BD               	addwf	animation_green_arrow@i_237,f
  4968  0CDA  1803               	skipnc
  4969  0CDB  0ABE               	incf	animation_green_arrow@i_237+1,f
  4970  0CDC  3000               	movlw	0
  4971  0CDD  07BE               	addwf	animation_green_arrow@i_237+1,f
  4972  0CDE  2C5A               	goto	l2859
  4973  0CDF                     l2903:
  4974  0CDF  3005               	movlw	5
  4975  0CE0  1283               	bcf	3,5	;RP0=0, select bank0
  4976  0CE1  1303               	bcf	3,6	;RP1=0, select bank0
  4977  0CE2  0244               	subwf	_timer_count,w
  4978  0CE3  1C03               	skipc
  4979  0CE4  2CE6               	goto	u3631
  4980  0CE5  2CE7               	goto	u3630
  4981  0CE6                     u3631:
  4982  0CE6  2C58               	goto	l2857
  4983  0CE7                     u3630:
  4984  0CE7                     l2905:
  4985                           
  4986                           ;Main.c: 1130: };Main.c: 1131: };Main.c: 1132: timer_count = 0;
  4987  0CE7  01C4               	clrf	_timer_count
  4988                           
  4989                           ;Main.c: 1139: while (timer_count < 200) {
  4990  0CE8  2CEC               	goto	l2909
  4991  0CE9                     l2907:
  4992                           
  4993                           ;Main.c: 1141: green_arrow();
  4994  0CE9  118A  2766  158A   	fcall	_green_arrow
  4995  0CEC                     l2909:
  4996  0CEC  30C8               	movlw	200
  4997  0CED  1283               	bcf	3,5	;RP0=0, select bank0
  4998  0CEE  1303               	bcf	3,6	;RP1=0, select bank0
  4999  0CEF  0244               	subwf	_timer_count,w
  5000  0CF0  1C03               	skipc
  5001  0CF1  2CF3               	goto	u3641
  5002  0CF2  2CF4               	goto	u3640
  5003  0CF3                     u3641:
  5004  0CF3  2CE9               	goto	l2907
  5005  0CF4                     u3640:
  5006  0CF4  2D74               	goto	l2953
  5007  0CF5                     l2911:
  5008                           
  5009                           ;Main.c: 1148: for (int i = 1; i < 8; i++) {
  5010  0CF5  3001               	movlw	1
  5011  0CF6  00BB               	movwf	animation_green_arrow@i_239
  5012  0CF7  3000               	movlw	0
  5013  0CF8  00BC               	movwf	animation_green_arrow@i_239+1
  5014  0CF9                     l2913:
  5015  0CF9  083C               	movf	animation_green_arrow@i_239+1,w
  5016  0CFA  3A80               	xorlw	128
  5017  0CFB  00FF               	movwf	btemp+1
  5018  0CFC  3080               	movlw	128
  5019  0CFD  027F               	subwf	btemp+1,w
  5020  0CFE  1D03               	skipz
  5021  0CFF  2D02               	goto	u3655
  5022  0D00  3008               	movlw	8
  5023  0D01  023B               	subwf	animation_green_arrow@i_239,w
  5024  0D02                     u3655:
  5025  0D02  1C03               	skipc
  5026  0D03  2D05               	goto	u3651
  5027  0D04  2D06               	goto	u3650
  5028  0D05                     u3651:
  5029  0D05  2D07               	goto	l351
  5030  0D06                     u3650:
  5031  0D06  2D74               	goto	l2953
  5032  0D07                     l351:
  5033                           
  5034                           ;Main.c: 1149: row = 0b00000001;
  5035  0D07  1283               	bcf	3,5	;RP0=0, select bank0
  5036  0D08  1303               	bcf	3,6	;RP1=0, select bank0
  5037  0D09  01C0               	clrf	animation_green_arrow@row
  5038  0D0A  0AC0               	incf	animation_green_arrow@row,f
  5039  0D0B                     l2917:
  5040                           
  5041                           ;Main.c: 1151: if (i != 0) {
  5042  0D0B  083B               	movf	animation_green_arrow@i_239,w
  5043  0D0C  043C               	iorwf	animation_green_arrow@i_239+1,w
  5044  0D0D  1903               	btfsc	3,2
  5045  0D0E  2D10               	goto	u3661
  5046  0D0F  2D11               	goto	u3660
  5047  0D10                     u3661:
  5048  0D10  2D1E               	goto	l2921
  5049  0D11                     u3660:
  5050  0D11                     l2919:
  5051                           
  5052                           ;Main.c: 1152: row = (row << i);
  5053  0D11  0840               	movf	animation_green_arrow@row,w
  5054  0D12  00A0               	movwf	??_animation_green_arrow
  5055  0D13  0A3B               	incf	animation_green_arrow@i_239,w
  5056  0D14  2D17               	goto	u3674
  5057  0D15                     u3675:
  5058  0D15  1003               	clrc
  5059  0D16  0DA0               	rlf	??_animation_green_arrow,f
  5060  0D17                     u3674:
  5061  0D17  3EFF               	addlw	-1
  5062  0D18  1D03               	skipz
  5063  0D19  2D15               	goto	u3675
  5064  0D1A  0820               	movf	??_animation_green_arrow,w
  5065  0D1B  00A1               	movwf	??_animation_green_arrow+1
  5066  0D1C  0821               	movf	??_animation_green_arrow+1,w
  5067  0D1D  00C0               	movwf	animation_green_arrow@row
  5068  0D1E                     l2921:
  5069                           
  5070                           ;Main.c: 1153: };Main.c: 1155: input_data(row);
  5071  0D1E  0840               	movf	animation_green_arrow@row,w
  5072  0D1F  158A  2118  158A   	fcall	_input_data
  5073  0D22                     l2923:
  5074                           
  5075                           ;Main.c: 1157: if (i == 7 || i == 1 || i == 2 || i == 3 || i == 4) {
  5076  0D22  3007               	movlw	7
  5077  0D23  1283               	bcf	3,5	;RP0=0, select bank0
  5078  0D24  1303               	bcf	3,6	;RP1=0, select bank0
  5079  0D25  063B               	xorwf	animation_green_arrow@i_239,w
  5080  0D26  043C               	iorwf	animation_green_arrow@i_239+1,w
  5081  0D27  1903               	btfsc	3,2
  5082  0D28  2D2A               	goto	u3681
  5083  0D29  2D2B               	goto	u3680
  5084  0D2A                     u3681:
  5085  0D2A  2D46               	goto	l2933
  5086  0D2B                     u3680:
  5087  0D2B                     l2925:
  5088  0D2B  033B               	decf	animation_green_arrow@i_239,w
  5089  0D2C  043C               	iorwf	animation_green_arrow@i_239+1,w
  5090  0D2D  1903               	btfsc	3,2
  5091  0D2E  2D30               	goto	u3691
  5092  0D2F  2D31               	goto	u3690
  5093  0D30                     u3691:
  5094  0D30  2D46               	goto	l2933
  5095  0D31                     u3690:
  5096  0D31                     l2927:
  5097  0D31  3002               	movlw	2
  5098  0D32  063B               	xorwf	animation_green_arrow@i_239,w
  5099  0D33  043C               	iorwf	animation_green_arrow@i_239+1,w
  5100  0D34  1903               	btfsc	3,2
  5101  0D35  2D37               	goto	u3701
  5102  0D36  2D38               	goto	u3700
  5103  0D37                     u3701:
  5104  0D37  2D46               	goto	l2933
  5105  0D38                     u3700:
  5106  0D38                     l2929:
  5107  0D38  3003               	movlw	3
  5108  0D39  063B               	xorwf	animation_green_arrow@i_239,w
  5109  0D3A  043C               	iorwf	animation_green_arrow@i_239+1,w
  5110  0D3B  1903               	btfsc	3,2
  5111  0D3C  2D3E               	goto	u3711
  5112  0D3D  2D3F               	goto	u3710
  5113  0D3E                     u3711:
  5114  0D3E  2D46               	goto	l2933
  5115  0D3F                     u3710:
  5116  0D3F                     l2931:
  5117  0D3F  3004               	movlw	4
  5118  0D40  063B               	xorwf	animation_green_arrow@i_239,w
  5119  0D41  043C               	iorwf	animation_green_arrow@i_239+1,w
  5120  0D42  1D03               	btfss	3,2
  5121  0D43  2D45               	goto	u3721
  5122  0D44  2D46               	goto	u3720
  5123  0D45                     u3721:
  5124  0D45  2D4A               	goto	l2935
  5125  0D46                     u3720:
  5126  0D46                     l2933:
  5127                           
  5128                           ;Main.c: 1159: col = 60;
  5129  0D46  303C               	movlw	60
  5130  0D47  00A0               	movwf	??_animation_green_arrow
  5131  0D48  0820               	movf	??_animation_green_arrow,w
  5132  0D49  00BF               	movwf	animation_green_arrow@col
  5133  0D4A                     l2935:
  5134                           
  5135                           ;Main.c: 1161: };Main.c: 1163: if (i == 6) {
  5136  0D4A  3006               	movlw	6
  5137  0D4B  063B               	xorwf	animation_green_arrow@i_239,w
  5138  0D4C  043C               	iorwf	animation_green_arrow@i_239+1,w
  5139  0D4D  1D03               	btfss	3,2
  5140  0D4E  2D50               	goto	u3731
  5141  0D4F  2D51               	goto	u3730
  5142  0D50                     u3731:
  5143  0D50  2D55               	goto	l2939
  5144  0D51                     u3730:
  5145  0D51                     l2937:
  5146                           
  5147                           ;Main.c: 1165: col = 126;
  5148  0D51  307E               	movlw	126
  5149  0D52  00A0               	movwf	??_animation_green_arrow
  5150  0D53  0820               	movf	??_animation_green_arrow,w
  5151  0D54  00BF               	movwf	animation_green_arrow@col
  5152  0D55                     l2939:
  5153                           
  5154                           ;Main.c: 1167: };Main.c: 1168: if (i == 5) {
  5155  0D55  3005               	movlw	5
  5156  0D56  063B               	xorwf	animation_green_arrow@i_239,w
  5157  0D57  043C               	iorwf	animation_green_arrow@i_239+1,w
  5158  0D58  1D03               	btfss	3,2
  5159  0D59  2D5B               	goto	u3741
  5160  0D5A  2D5C               	goto	u3740
  5161  0D5B                     u3741:
  5162  0D5B  2D60               	goto	l2943
  5163  0D5C                     u3740:
  5164  0D5C                     l2941:
  5165                           
  5166                           ;Main.c: 1170: col = 255;
  5167  0D5C  30FF               	movlw	255
  5168  0D5D  00A0               	movwf	??_animation_green_arrow
  5169  0D5E  0820               	movf	??_animation_green_arrow,w
  5170  0D5F  00BF               	movwf	animation_green_arrow@col
  5171  0D60                     l2943:
  5172                           
  5173                           ;Main.c: 1172: };Main.c: 1173: input_data(col);
  5174  0D60  083F               	movf	animation_green_arrow@col,w
  5175  0D61  158A  2118  158A   	fcall	_input_data
  5176  0D64                     l2945:
  5177                           
  5178                           ;Main.c: 1174: input_data(0);
  5179  0D64  3000               	movlw	0
  5180  0D65  158A  2118  158A   	fcall	_input_data
  5181  0D68                     l2947:
  5182                           
  5183                           ;Main.c: 1176: latch_output();
  5184  0D68  158A  20BB  158A   	fcall	_latch_output
  5185  0D6B                     l2949:
  5186  0D6B  3001               	movlw	1
  5187  0D6C  1283               	bcf	3,5	;RP0=0, select bank0
  5188  0D6D  1303               	bcf	3,6	;RP1=0, select bank0
  5189  0D6E  07BB               	addwf	animation_green_arrow@i_239,f
  5190  0D6F  1803               	skipnc
  5191  0D70  0ABC               	incf	animation_green_arrow@i_239+1,f
  5192  0D71  3000               	movlw	0
  5193  0D72  07BC               	addwf	animation_green_arrow@i_239+1,f
  5194  0D73  2CF9               	goto	l2913
  5195  0D74                     l2953:
  5196  0D74  3005               	movlw	5
  5197  0D75  1283               	bcf	3,5	;RP0=0, select bank0
  5198  0D76  1303               	bcf	3,6	;RP1=0, select bank0
  5199  0D77  0244               	subwf	_timer_count,w
  5200  0D78  1C03               	skipc
  5201  0D79  2D7B               	goto	u3751
  5202  0D7A  2D7C               	goto	u3750
  5203  0D7B                     u3751:
  5204  0D7B  2CF5               	goto	l2911
  5205  0D7C                     u3750:
  5206  0D7C                     l2955:
  5207                           
  5208                           ;Main.c: 1177: };Main.c: 1178: };Main.c: 1179: timer_count = 0;
  5209  0D7C  01C4               	clrf	_timer_count
  5210                           
  5211                           ;Main.c: 1182: while (timer_count < 4) {
  5212  0D7D  2DF7               	goto	l2997
  5213  0D7E                     l2957:
  5214                           
  5215                           ;Main.c: 1183: for (int i = 2; i < 8; i++) {
  5216  0D7E  3002               	movlw	2
  5217  0D7F  00B7               	movwf	animation_green_arrow@i_240
  5218  0D80  3000               	movlw	0
  5219  0D81  00B8               	movwf	animation_green_arrow@i_240+1
  5220  0D82                     l2959:
  5221  0D82  0838               	movf	animation_green_arrow@i_240+1,w
  5222  0D83  3A80               	xorlw	128
  5223  0D84  00FF               	movwf	btemp+1
  5224  0D85  3080               	movlw	128
  5225  0D86  027F               	subwf	btemp+1,w
  5226  0D87  1D03               	skipz
  5227  0D88  2D8B               	goto	u3765
  5228  0D89  3008               	movlw	8
  5229  0D8A  0237               	subwf	animation_green_arrow@i_240,w
  5230  0D8B                     u3765:
  5231  0D8B  1C03               	skipc
  5232  0D8C  2D8E               	goto	u3761
  5233  0D8D  2D8F               	goto	u3760
  5234  0D8E                     u3761:
  5235  0D8E  2D90               	goto	l362
  5236  0D8F                     u3760:
  5237  0D8F  2DF7               	goto	l2997
  5238  0D90                     l362:
  5239                           
  5240                           ;Main.c: 1184: row = 0b00000001;
  5241  0D90  1283               	bcf	3,5	;RP0=0, select bank0
  5242  0D91  1303               	bcf	3,6	;RP1=0, select bank0
  5243  0D92  01C0               	clrf	animation_green_arrow@row
  5244  0D93  0AC0               	incf	animation_green_arrow@row,f
  5245  0D94                     l2963:
  5246                           
  5247                           ;Main.c: 1186: if (i != 0) {
  5248  0D94  0837               	movf	animation_green_arrow@i_240,w
  5249  0D95  0438               	iorwf	animation_green_arrow@i_240+1,w
  5250  0D96  1903               	btfsc	3,2
  5251  0D97  2D99               	goto	u3771
  5252  0D98  2D9A               	goto	u3770
  5253  0D99                     u3771:
  5254  0D99  2DA7               	goto	l2967
  5255  0D9A                     u3770:
  5256  0D9A                     l2965:
  5257                           
  5258                           ;Main.c: 1187: row = (row << i);
  5259  0D9A  0840               	movf	animation_green_arrow@row,w
  5260  0D9B  00A0               	movwf	??_animation_green_arrow
  5261  0D9C  0A37               	incf	animation_green_arrow@i_240,w
  5262  0D9D  2DA0               	goto	u3784
  5263  0D9E                     u3785:
  5264  0D9E  1003               	clrc
  5265  0D9F  0DA0               	rlf	??_animation_green_arrow,f
  5266  0DA0                     u3784:
  5267  0DA0  3EFF               	addlw	-1
  5268  0DA1  1D03               	skipz
  5269  0DA2  2D9E               	goto	u3785
  5270  0DA3  0820               	movf	??_animation_green_arrow,w
  5271  0DA4  00A1               	movwf	??_animation_green_arrow+1
  5272  0DA5  0821               	movf	??_animation_green_arrow+1,w
  5273  0DA6  00C0               	movwf	animation_green_arrow@row
  5274  0DA7                     l2967:
  5275                           
  5276                           ;Main.c: 1188: };Main.c: 1190: input_data(row);
  5277  0DA7  0840               	movf	animation_green_arrow@row,w
  5278  0DA8  158A  2118  158A   	fcall	_input_data
  5279  0DAB                     l2969:
  5280                           
  5281                           ;Main.c: 1192: if (i == 2 || i == 3 || i == 4 || i == 5) {
  5282  0DAB  3002               	movlw	2
  5283  0DAC  1283               	bcf	3,5	;RP0=0, select bank0
  5284  0DAD  1303               	bcf	3,6	;RP1=0, select bank0
  5285  0DAE  0637               	xorwf	animation_green_arrow@i_240,w
  5286  0DAF  0438               	iorwf	animation_green_arrow@i_240+1,w
  5287  0DB0  1903               	btfsc	3,2
  5288  0DB1  2DB3               	goto	u3791
  5289  0DB2  2DB4               	goto	u3790
  5290  0DB3                     u3791:
  5291  0DB3  2DC9               	goto	l2977
  5292  0DB4                     u3790:
  5293  0DB4                     l2971:
  5294  0DB4  3003               	movlw	3
  5295  0DB5  0637               	xorwf	animation_green_arrow@i_240,w
  5296  0DB6  0438               	iorwf	animation_green_arrow@i_240+1,w
  5297  0DB7  1903               	btfsc	3,2
  5298  0DB8  2DBA               	goto	u3801
  5299  0DB9  2DBB               	goto	u3800
  5300  0DBA                     u3801:
  5301  0DBA  2DC9               	goto	l2977
  5302  0DBB                     u3800:
  5303  0DBB                     l2973:
  5304  0DBB  3004               	movlw	4
  5305  0DBC  0637               	xorwf	animation_green_arrow@i_240,w
  5306  0DBD  0438               	iorwf	animation_green_arrow@i_240+1,w
  5307  0DBE  1903               	btfsc	3,2
  5308  0DBF  2DC1               	goto	u3811
  5309  0DC0  2DC2               	goto	u3810
  5310  0DC1                     u3811:
  5311  0DC1  2DC9               	goto	l2977
  5312  0DC2                     u3810:
  5313  0DC2                     l2975:
  5314  0DC2  3005               	movlw	5
  5315  0DC3  0637               	xorwf	animation_green_arrow@i_240,w
  5316  0DC4  0438               	iorwf	animation_green_arrow@i_240+1,w
  5317  0DC5  1D03               	btfss	3,2
  5318  0DC6  2DC8               	goto	u3821
  5319  0DC7  2DC9               	goto	u3820
  5320  0DC8                     u3821:
  5321  0DC8  2DCD               	goto	l2979
  5322  0DC9                     u3820:
  5323  0DC9                     l2977:
  5324                           
  5325                           ;Main.c: 1194: col = 60;
  5326  0DC9  303C               	movlw	60
  5327  0DCA  00A0               	movwf	??_animation_green_arrow
  5328  0DCB  0820               	movf	??_animation_green_arrow,w
  5329  0DCC  00BF               	movwf	animation_green_arrow@col
  5330  0DCD                     l2979:
  5331                           
  5332                           ;Main.c: 1196: };Main.c: 1198: if (i == 7) {
  5333  0DCD  3007               	movlw	7
  5334  0DCE  0637               	xorwf	animation_green_arrow@i_240,w
  5335  0DCF  0438               	iorwf	animation_green_arrow@i_240+1,w
  5336  0DD0  1D03               	btfss	3,2
  5337  0DD1  2DD3               	goto	u3831
  5338  0DD2  2DD4               	goto	u3830
  5339  0DD3                     u3831:
  5340  0DD3  2DD8               	goto	l2983
  5341  0DD4                     u3830:
  5342  0DD4                     l2981:
  5343                           
  5344                           ;Main.c: 1200: col = 126;
  5345  0DD4  307E               	movlw	126
  5346  0DD5  00A0               	movwf	??_animation_green_arrow
  5347  0DD6  0820               	movf	??_animation_green_arrow,w
  5348  0DD7  00BF               	movwf	animation_green_arrow@col
  5349  0DD8                     l2983:
  5350                           
  5351                           ;Main.c: 1202: };Main.c: 1203: if (i == 6) {
  5352  0DD8  3006               	movlw	6
  5353  0DD9  0637               	xorwf	animation_green_arrow@i_240,w
  5354  0DDA  0438               	iorwf	animation_green_arrow@i_240+1,w
  5355  0DDB  1D03               	btfss	3,2
  5356  0DDC  2DDE               	goto	u3841
  5357  0DDD  2DDF               	goto	u3840
  5358  0DDE                     u3841:
  5359  0DDE  2DE3               	goto	l2987
  5360  0DDF                     u3840:
  5361  0DDF                     l2985:
  5362                           
  5363                           ;Main.c: 1205: col = 255;
  5364  0DDF  30FF               	movlw	255
  5365  0DE0  00A0               	movwf	??_animation_green_arrow
  5366  0DE1  0820               	movf	??_animation_green_arrow,w
  5367  0DE2  00BF               	movwf	animation_green_arrow@col
  5368  0DE3                     l2987:
  5369                           
  5370                           ;Main.c: 1207: };Main.c: 1208: input_data(col);
  5371  0DE3  083F               	movf	animation_green_arrow@col,w
  5372  0DE4  158A  2118  158A   	fcall	_input_data
  5373  0DE7                     l2989:
  5374                           
  5375                           ;Main.c: 1209: input_data(0);
  5376  0DE7  3000               	movlw	0
  5377  0DE8  158A  2118  158A   	fcall	_input_data
  5378  0DEB                     l2991:
  5379                           
  5380                           ;Main.c: 1211: latch_output();
  5381  0DEB  158A  20BB  158A   	fcall	_latch_output
  5382  0DEE                     l2993:
  5383  0DEE  3001               	movlw	1
  5384  0DEF  1283               	bcf	3,5	;RP0=0, select bank0
  5385  0DF0  1303               	bcf	3,6	;RP1=0, select bank0
  5386  0DF1  07B7               	addwf	animation_green_arrow@i_240,f
  5387  0DF2  1803               	skipnc
  5388  0DF3  0AB8               	incf	animation_green_arrow@i_240+1,f
  5389  0DF4  3000               	movlw	0
  5390  0DF5  07B8               	addwf	animation_green_arrow@i_240+1,f
  5391  0DF6  2D82               	goto	l2959
  5392  0DF7                     l2997:
  5393  0DF7  3004               	movlw	4
  5394  0DF8  1283               	bcf	3,5	;RP0=0, select bank0
  5395  0DF9  1303               	bcf	3,6	;RP1=0, select bank0
  5396  0DFA  0244               	subwf	_timer_count,w
  5397  0DFB  1C03               	skipc
  5398  0DFC  2DFE               	goto	u3851
  5399  0DFD  2DFF               	goto	u3850
  5400  0DFE                     u3851:
  5401  0DFE  2D7E               	goto	l2957
  5402  0DFF                     u3850:
  5403  0DFF                     l2999:
  5404                           
  5405                           ;Main.c: 1212: };Main.c: 1213: };Main.c: 1214: timer_count = 0;
  5406  0DFF  01C4               	clrf	_timer_count
  5407                           
  5408                           ;Main.c: 1217: while (timer_count < 4) {
  5409  0E00  2E6F               	goto	l3037
  5410  0E01                     l3001:
  5411                           
  5412                           ;Main.c: 1218: for (int i = 3; i < 8; i++) {
  5413  0E01  3003               	movlw	3
  5414  0E02  00B3               	movwf	animation_green_arrow@i_241
  5415  0E03  3000               	movlw	0
  5416  0E04  00B4               	movwf	animation_green_arrow@i_241+1
  5417  0E05                     l3003:
  5418  0E05  0834               	movf	animation_green_arrow@i_241+1,w
  5419  0E06  3A80               	xorlw	128
  5420  0E07  00FF               	movwf	btemp+1
  5421  0E08  3080               	movlw	128
  5422  0E09  027F               	subwf	btemp+1,w
  5423  0E0A  1D03               	skipz
  5424  0E0B  2E0E               	goto	u3865
  5425  0E0C  3008               	movlw	8
  5426  0E0D  0233               	subwf	animation_green_arrow@i_241,w
  5427  0E0E                     u3865:
  5428  0E0E  1C03               	skipc
  5429  0E0F  2E11               	goto	u3861
  5430  0E10  2E12               	goto	u3860
  5431  0E11                     u3861:
  5432  0E11  2E13               	goto	l373
  5433  0E12                     u3860:
  5434  0E12  2E6F               	goto	l3037
  5435  0E13                     l373:
  5436                           
  5437                           ;Main.c: 1219: row = 0b00000001;
  5438  0E13  1283               	bcf	3,5	;RP0=0, select bank0
  5439  0E14  1303               	bcf	3,6	;RP1=0, select bank0
  5440  0E15  01C0               	clrf	animation_green_arrow@row
  5441  0E16  0AC0               	incf	animation_green_arrow@row,f
  5442  0E17                     l3007:
  5443                           
  5444                           ;Main.c: 1221: if (i != 0) {
  5445  0E17  0833               	movf	animation_green_arrow@i_241,w
  5446  0E18  0434               	iorwf	animation_green_arrow@i_241+1,w
  5447  0E19  1903               	btfsc	3,2
  5448  0E1A  2E1C               	goto	u3871
  5449  0E1B  2E1D               	goto	u3870
  5450  0E1C                     u3871:
  5451  0E1C  2E2A               	goto	l3011
  5452  0E1D                     u3870:
  5453  0E1D                     l3009:
  5454                           
  5455                           ;Main.c: 1222: row = (row << i);
  5456  0E1D  0840               	movf	animation_green_arrow@row,w
  5457  0E1E  00A0               	movwf	??_animation_green_arrow
  5458  0E1F  0A33               	incf	animation_green_arrow@i_241,w
  5459  0E20  2E23               	goto	u3884
  5460  0E21                     u3885:
  5461  0E21  1003               	clrc
  5462  0E22  0DA0               	rlf	??_animation_green_arrow,f
  5463  0E23                     u3884:
  5464  0E23  3EFF               	addlw	-1
  5465  0E24  1D03               	skipz
  5466  0E25  2E21               	goto	u3885
  5467  0E26  0820               	movf	??_animation_green_arrow,w
  5468  0E27  00A1               	movwf	??_animation_green_arrow+1
  5469  0E28  0821               	movf	??_animation_green_arrow+1,w
  5470  0E29  00C0               	movwf	animation_green_arrow@row
  5471  0E2A                     l3011:
  5472                           
  5473                           ;Main.c: 1223: };Main.c: 1225: input_data(row);
  5474  0E2A  0840               	movf	animation_green_arrow@row,w
  5475  0E2B  158A  2118  158A   	fcall	_input_data
  5476  0E2E                     l3013:
  5477                           
  5478                           ;Main.c: 1227: if (i == 3 || i == 4 || i == 5 || i == 6) {
  5479  0E2E  3003               	movlw	3
  5480  0E2F  1283               	bcf	3,5	;RP0=0, select bank0
  5481  0E30  1303               	bcf	3,6	;RP1=0, select bank0
  5482  0E31  0633               	xorwf	animation_green_arrow@i_241,w
  5483  0E32  0434               	iorwf	animation_green_arrow@i_241+1,w
  5484  0E33  1903               	btfsc	3,2
  5485  0E34  2E36               	goto	u3891
  5486  0E35  2E37               	goto	u3890
  5487  0E36                     u3891:
  5488  0E36  2E4C               	goto	l3021
  5489  0E37                     u3890:
  5490  0E37                     l3015:
  5491  0E37  3004               	movlw	4
  5492  0E38  0633               	xorwf	animation_green_arrow@i_241,w
  5493  0E39  0434               	iorwf	animation_green_arrow@i_241+1,w
  5494  0E3A  1903               	btfsc	3,2
  5495  0E3B  2E3D               	goto	u3901
  5496  0E3C  2E3E               	goto	u3900
  5497  0E3D                     u3901:
  5498  0E3D  2E4C               	goto	l3021
  5499  0E3E                     u3900:
  5500  0E3E                     l3017:
  5501  0E3E  3005               	movlw	5
  5502  0E3F  0633               	xorwf	animation_green_arrow@i_241,w
  5503  0E40  0434               	iorwf	animation_green_arrow@i_241+1,w
  5504  0E41  1903               	btfsc	3,2
  5505  0E42  2E44               	goto	u3911
  5506  0E43  2E45               	goto	u3910
  5507  0E44                     u3911:
  5508  0E44  2E4C               	goto	l3021
  5509  0E45                     u3910:
  5510  0E45                     l3019:
  5511  0E45  3006               	movlw	6
  5512  0E46  0633               	xorwf	animation_green_arrow@i_241,w
  5513  0E47  0434               	iorwf	animation_green_arrow@i_241+1,w
  5514  0E48  1D03               	btfss	3,2
  5515  0E49  2E4B               	goto	u3921
  5516  0E4A  2E4C               	goto	u3920
  5517  0E4B                     u3921:
  5518  0E4B  2E50               	goto	l3023
  5519  0E4C                     u3920:
  5520  0E4C                     l3021:
  5521                           
  5522                           ;Main.c: 1229: col = 60;
  5523  0E4C  303C               	movlw	60
  5524  0E4D  00A0               	movwf	??_animation_green_arrow
  5525  0E4E  0820               	movf	??_animation_green_arrow,w
  5526  0E4F  00BF               	movwf	animation_green_arrow@col
  5527  0E50                     l3023:
  5528                           
  5529                           ;Main.c: 1231: };Main.c: 1233: if (i == 7) {
  5530  0E50  3007               	movlw	7
  5531  0E51  0633               	xorwf	animation_green_arrow@i_241,w
  5532  0E52  0434               	iorwf	animation_green_arrow@i_241+1,w
  5533  0E53  1D03               	btfss	3,2
  5534  0E54  2E56               	goto	u3931
  5535  0E55  2E57               	goto	u3930
  5536  0E56                     u3931:
  5537  0E56  2E5B               	goto	l3027
  5538  0E57                     u3930:
  5539  0E57                     l3025:
  5540                           
  5541                           ;Main.c: 1235: col = 255;
  5542  0E57  30FF               	movlw	255
  5543  0E58  00A0               	movwf	??_animation_green_arrow
  5544  0E59  0820               	movf	??_animation_green_arrow,w
  5545  0E5A  00BF               	movwf	animation_green_arrow@col
  5546  0E5B                     l3027:
  5547                           
  5548                           ;Main.c: 1237: };Main.c: 1238: input_data(col);
  5549  0E5B  083F               	movf	animation_green_arrow@col,w
  5550  0E5C  158A  2118  158A   	fcall	_input_data
  5551  0E5F                     l3029:
  5552                           
  5553                           ;Main.c: 1239: input_data(0);
  5554  0E5F  3000               	movlw	0
  5555  0E60  158A  2118  158A   	fcall	_input_data
  5556  0E63                     l3031:
  5557                           
  5558                           ;Main.c: 1241: latch_output();
  5559  0E63  158A  20BB  158A   	fcall	_latch_output
  5560  0E66                     l3033:
  5561  0E66  3001               	movlw	1
  5562  0E67  1283               	bcf	3,5	;RP0=0, select bank0
  5563  0E68  1303               	bcf	3,6	;RP1=0, select bank0
  5564  0E69  07B3               	addwf	animation_green_arrow@i_241,f
  5565  0E6A  1803               	skipnc
  5566  0E6B  0AB4               	incf	animation_green_arrow@i_241+1,f
  5567  0E6C  3000               	movlw	0
  5568  0E6D  07B4               	addwf	animation_green_arrow@i_241+1,f
  5569  0E6E  2E05               	goto	l3003
  5570  0E6F                     l3037:
  5571  0E6F  3004               	movlw	4
  5572  0E70  1283               	bcf	3,5	;RP0=0, select bank0
  5573  0E71  1303               	bcf	3,6	;RP1=0, select bank0
  5574  0E72  0244               	subwf	_timer_count,w
  5575  0E73  1C03               	skipc
  5576  0E74  2E76               	goto	u3941
  5577  0E75  2E77               	goto	u3940
  5578  0E76                     u3941:
  5579  0E76  2E01               	goto	l3001
  5580  0E77                     u3940:
  5581  0E77                     l3039:
  5582                           
  5583                           ;Main.c: 1242: };Main.c: 1243: };Main.c: 1244: timer_count = 0;
  5584  0E77  01C4               	clrf	_timer_count
  5585                           
  5586                           ;Main.c: 1247: while (timer_count < ani_timer) {
  5587  0E78  2EDC               	goto	l3073
  5588  0E79                     l3041:
  5589                           
  5590                           ;Main.c: 1248: for (int i = 4; i < 8; i++) {
  5591  0E79  3004               	movlw	4
  5592  0E7A  00AF               	movwf	animation_green_arrow@i_242
  5593  0E7B  3000               	movlw	0
  5594  0E7C  00B0               	movwf	animation_green_arrow@i_242+1
  5595  0E7D                     l3043:
  5596  0E7D  0830               	movf	animation_green_arrow@i_242+1,w
  5597  0E7E  3A80               	xorlw	128
  5598  0E7F  00FF               	movwf	btemp+1
  5599  0E80  3080               	movlw	128
  5600  0E81  027F               	subwf	btemp+1,w
  5601  0E82  1D03               	skipz
  5602  0E83  2E86               	goto	u3955
  5603  0E84  3008               	movlw	8
  5604  0E85  022F               	subwf	animation_green_arrow@i_242,w
  5605  0E86                     u3955:
  5606  0E86  1C03               	skipc
  5607  0E87  2E89               	goto	u3951
  5608  0E88  2E8A               	goto	u3950
  5609  0E89                     u3951:
  5610  0E89  2E8B               	goto	l383
  5611  0E8A                     u3950:
  5612  0E8A  2EDC               	goto	l3073
  5613  0E8B                     l383:
  5614                           
  5615                           ;Main.c: 1249: row = 0b00000001;
  5616  0E8B  1283               	bcf	3,5	;RP0=0, select bank0
  5617  0E8C  1303               	bcf	3,6	;RP1=0, select bank0
  5618  0E8D  01C0               	clrf	animation_green_arrow@row
  5619  0E8E  0AC0               	incf	animation_green_arrow@row,f
  5620  0E8F                     l3047:
  5621                           
  5622                           ;Main.c: 1251: if (i != 0) {
  5623  0E8F  082F               	movf	animation_green_arrow@i_242,w
  5624  0E90  0430               	iorwf	animation_green_arrow@i_242+1,w
  5625  0E91  1903               	btfsc	3,2
  5626  0E92  2E94               	goto	u3961
  5627  0E93  2E95               	goto	u3960
  5628  0E94                     u3961:
  5629  0E94  2EA2               	goto	l3051
  5630  0E95                     u3960:
  5631  0E95                     l3049:
  5632                           
  5633                           ;Main.c: 1252: row = (row << i);
  5634  0E95  0840               	movf	animation_green_arrow@row,w
  5635  0E96  00A0               	movwf	??_animation_green_arrow
  5636  0E97  0A2F               	incf	animation_green_arrow@i_242,w
  5637  0E98  2E9B               	goto	u3974
  5638  0E99                     u3975:
  5639  0E99  1003               	clrc
  5640  0E9A  0DA0               	rlf	??_animation_green_arrow,f
  5641  0E9B                     u3974:
  5642  0E9B  3EFF               	addlw	-1
  5643  0E9C  1D03               	skipz
  5644  0E9D  2E99               	goto	u3975
  5645  0E9E  0820               	movf	??_animation_green_arrow,w
  5646  0E9F  00A1               	movwf	??_animation_green_arrow+1
  5647  0EA0  0821               	movf	??_animation_green_arrow+1,w
  5648  0EA1  00C0               	movwf	animation_green_arrow@row
  5649  0EA2                     l3051:
  5650                           
  5651                           ;Main.c: 1253: };Main.c: 1255: input_data(row);
  5652  0EA2  0840               	movf	animation_green_arrow@row,w
  5653  0EA3  158A  2118  158A   	fcall	_input_data
  5654  0EA6                     l3053:
  5655                           
  5656                           ;Main.c: 1257: if (i == 4 || i == 5 || i == 6 || i == 7) {
  5657  0EA6  3004               	movlw	4
  5658  0EA7  1283               	bcf	3,5	;RP0=0, select bank0
  5659  0EA8  1303               	bcf	3,6	;RP1=0, select bank0
  5660  0EA9  062F               	xorwf	animation_green_arrow@i_242,w
  5661  0EAA  0430               	iorwf	animation_green_arrow@i_242+1,w
  5662  0EAB  1903               	btfsc	3,2
  5663  0EAC  2EAE               	goto	u3981
  5664  0EAD  2EAF               	goto	u3980
  5665  0EAE                     u3981:
  5666  0EAE  2EC4               	goto	l3061
  5667  0EAF                     u3980:
  5668  0EAF                     l3055:
  5669  0EAF  3005               	movlw	5
  5670  0EB0  062F               	xorwf	animation_green_arrow@i_242,w
  5671  0EB1  0430               	iorwf	animation_green_arrow@i_242+1,w
  5672  0EB2  1903               	btfsc	3,2
  5673  0EB3  2EB5               	goto	u3991
  5674  0EB4  2EB6               	goto	u3990
  5675  0EB5                     u3991:
  5676  0EB5  2EC4               	goto	l3061
  5677  0EB6                     u3990:
  5678  0EB6                     l3057:
  5679  0EB6  3006               	movlw	6
  5680  0EB7  062F               	xorwf	animation_green_arrow@i_242,w
  5681  0EB8  0430               	iorwf	animation_green_arrow@i_242+1,w
  5682  0EB9  1903               	btfsc	3,2
  5683  0EBA  2EBC               	goto	u4001
  5684  0EBB  2EBD               	goto	u4000
  5685  0EBC                     u4001:
  5686  0EBC  2EC4               	goto	l3061
  5687  0EBD                     u4000:
  5688  0EBD                     l3059:
  5689  0EBD  3007               	movlw	7
  5690  0EBE  062F               	xorwf	animation_green_arrow@i_242,w
  5691  0EBF  0430               	iorwf	animation_green_arrow@i_242+1,w
  5692  0EC0  1D03               	btfss	3,2
  5693  0EC1  2EC3               	goto	u4011
  5694  0EC2  2EC4               	goto	u4010
  5695  0EC3                     u4011:
  5696  0EC3  2EC8               	goto	l3063
  5697  0EC4                     u4010:
  5698  0EC4                     l3061:
  5699                           
  5700                           ;Main.c: 1259: col = 60;
  5701  0EC4  303C               	movlw	60
  5702  0EC5  00A0               	movwf	??_animation_green_arrow
  5703  0EC6  0820               	movf	??_animation_green_arrow,w
  5704  0EC7  00BF               	movwf	animation_green_arrow@col
  5705  0EC8                     l3063:
  5706                           
  5707                           ;Main.c: 1261: };Main.c: 1262: input_data(col);
  5708  0EC8  083F               	movf	animation_green_arrow@col,w
  5709  0EC9  158A  2118  158A   	fcall	_input_data
  5710  0ECC                     l3065:
  5711                           
  5712                           ;Main.c: 1263: input_data(0);
  5713  0ECC  3000               	movlw	0
  5714  0ECD  158A  2118  158A   	fcall	_input_data
  5715  0ED0                     l3067:
  5716                           
  5717                           ;Main.c: 1265: latch_output();
  5718  0ED0  158A  20BB  158A   	fcall	_latch_output
  5719  0ED3                     l3069:
  5720  0ED3  3001               	movlw	1
  5721  0ED4  1283               	bcf	3,5	;RP0=0, select bank0
  5722  0ED5  1303               	bcf	3,6	;RP1=0, select bank0
  5723  0ED6  07AF               	addwf	animation_green_arrow@i_242,f
  5724  0ED7  1803               	skipnc
  5725  0ED8  0AB0               	incf	animation_green_arrow@i_242+1,f
  5726  0ED9  3000               	movlw	0
  5727  0EDA  07B0               	addwf	animation_green_arrow@i_242+1,f
  5728  0EDB  2E7D               	goto	l3043
  5729  0EDC                     l3073:
  5730  0EDC  1283               	bcf	3,5	;RP0=0, select bank0
  5731  0EDD  1303               	bcf	3,6	;RP1=0, select bank0
  5732  0EDE  082C               	movf	animation_green_arrow@ani_timer,w
  5733  0EDF  0244               	subwf	_timer_count,w
  5734  0EE0  1C03               	skipc
  5735  0EE1  2EE3               	goto	u4021
  5736  0EE2  2EE4               	goto	u4020
  5737  0EE3                     u4021:
  5738  0EE3  2E79               	goto	l3041
  5739  0EE4                     u4020:
  5740  0EE4                     l3075:
  5741                           
  5742                           ;Main.c: 1266: };Main.c: 1267: };Main.c: 1268: timer_count = 0;
  5743  0EE4  01C4               	clrf	_timer_count
  5744                           
  5745                           ;Main.c: 1271: while (timer_count < ani_timer) {
  5746  0EE5  2F42               	goto	l3107
  5747  0EE6                     l3077:
  5748                           
  5749                           ;Main.c: 1272: for (int i = 5; i < 8; i++) {
  5750  0EE6  3005               	movlw	5
  5751  0EE7  00AA               	movwf	animation_green_arrow@i_243
  5752  0EE8  3000               	movlw	0
  5753  0EE9  00AB               	movwf	animation_green_arrow@i_243+1
  5754  0EEA                     l3079:
  5755  0EEA  082B               	movf	animation_green_arrow@i_243+1,w
  5756  0EEB  3A80               	xorlw	128
  5757  0EEC  00FF               	movwf	btemp+1
  5758  0EED  3080               	movlw	128
  5759  0EEE  027F               	subwf	btemp+1,w
  5760  0EEF  1D03               	skipz
  5761  0EF0  2EF3               	goto	u4035
  5762  0EF1  3008               	movlw	8
  5763  0EF2  022A               	subwf	animation_green_arrow@i_243,w
  5764  0EF3                     u4035:
  5765  0EF3  1C03               	skipc
  5766  0EF4  2EF6               	goto	u4031
  5767  0EF5  2EF7               	goto	u4030
  5768  0EF6                     u4031:
  5769  0EF6  2EF8               	goto	l392
  5770  0EF7                     u4030:
  5771  0EF7  2F42               	goto	l3107
  5772  0EF8                     l392:
  5773                           
  5774                           ;Main.c: 1273: row = 0b00000001;
  5775  0EF8  1283               	bcf	3,5	;RP0=0, select bank0
  5776  0EF9  1303               	bcf	3,6	;RP1=0, select bank0
  5777  0EFA  01C0               	clrf	animation_green_arrow@row
  5778  0EFB  0AC0               	incf	animation_green_arrow@row,f
  5779  0EFC                     l3083:
  5780                           
  5781                           ;Main.c: 1275: if (i != 0) {
  5782  0EFC  082A               	movf	animation_green_arrow@i_243,w
  5783  0EFD  042B               	iorwf	animation_green_arrow@i_243+1,w
  5784  0EFE  1903               	btfsc	3,2
  5785  0EFF  2F01               	goto	u4041
  5786  0F00  2F02               	goto	u4040
  5787  0F01                     u4041:
  5788  0F01  2F0F               	goto	l3087
  5789  0F02                     u4040:
  5790  0F02                     l3085:
  5791                           
  5792                           ;Main.c: 1276: row = (row << i);
  5793  0F02  0840               	movf	animation_green_arrow@row,w
  5794  0F03  00A0               	movwf	??_animation_green_arrow
  5795  0F04  0A2A               	incf	animation_green_arrow@i_243,w
  5796  0F05  2F08               	goto	u4054
  5797  0F06                     u4055:
  5798  0F06  1003               	clrc
  5799  0F07  0DA0               	rlf	??_animation_green_arrow,f
  5800  0F08                     u4054:
  5801  0F08  3EFF               	addlw	-1
  5802  0F09  1D03               	skipz
  5803  0F0A  2F06               	goto	u4055
  5804  0F0B  0820               	movf	??_animation_green_arrow,w
  5805  0F0C  00A1               	movwf	??_animation_green_arrow+1
  5806  0F0D  0821               	movf	??_animation_green_arrow+1,w
  5807  0F0E  00C0               	movwf	animation_green_arrow@row
  5808  0F0F                     l3087:
  5809                           
  5810                           ;Main.c: 1277: };Main.c: 1279: input_data(row);
  5811  0F0F  0840               	movf	animation_green_arrow@row,w
  5812  0F10  158A  2118  158A   	fcall	_input_data
  5813  0F13                     l3089:
  5814                           
  5815                           ;Main.c: 1281: if (i == 5 || i == 6 || i == 7) {
  5816  0F13  3005               	movlw	5
  5817  0F14  1283               	bcf	3,5	;RP0=0, select bank0
  5818  0F15  1303               	bcf	3,6	;RP1=0, select bank0
  5819  0F16  062A               	xorwf	animation_green_arrow@i_243,w
  5820  0F17  042B               	iorwf	animation_green_arrow@i_243+1,w
  5821  0F18  1903               	btfsc	3,2
  5822  0F19  2F1B               	goto	u4061
  5823  0F1A  2F1C               	goto	u4060
  5824  0F1B                     u4061:
  5825  0F1B  2F2A               	goto	l3095
  5826  0F1C                     u4060:
  5827  0F1C                     l3091:
  5828  0F1C  3006               	movlw	6
  5829  0F1D  062A               	xorwf	animation_green_arrow@i_243,w
  5830  0F1E  042B               	iorwf	animation_green_arrow@i_243+1,w
  5831  0F1F  1903               	btfsc	3,2
  5832  0F20  2F22               	goto	u4071
  5833  0F21  2F23               	goto	u4070
  5834  0F22                     u4071:
  5835  0F22  2F2A               	goto	l3095
  5836  0F23                     u4070:
  5837  0F23                     l3093:
  5838  0F23  3007               	movlw	7
  5839  0F24  062A               	xorwf	animation_green_arrow@i_243,w
  5840  0F25  042B               	iorwf	animation_green_arrow@i_243+1,w
  5841  0F26  1D03               	btfss	3,2
  5842  0F27  2F29               	goto	u4081
  5843  0F28  2F2A               	goto	u4080
  5844  0F29                     u4081:
  5845  0F29  2F2E               	goto	l3097
  5846  0F2A                     u4080:
  5847  0F2A                     l3095:
  5848                           
  5849                           ;Main.c: 1283: col = 60;
  5850  0F2A  303C               	movlw	60
  5851  0F2B  00A0               	movwf	??_animation_green_arrow
  5852  0F2C  0820               	movf	??_animation_green_arrow,w
  5853  0F2D  00BF               	movwf	animation_green_arrow@col
  5854  0F2E                     l3097:
  5855                           
  5856                           ;Main.c: 1285: };Main.c: 1286: input_data(col);
  5857  0F2E  083F               	movf	animation_green_arrow@col,w
  5858  0F2F  158A  2118  158A   	fcall	_input_data
  5859  0F32                     l3099:
  5860                           
  5861                           ;Main.c: 1287: input_data(0);
  5862  0F32  3000               	movlw	0
  5863  0F33  158A  2118  158A   	fcall	_input_data
  5864  0F36                     l3101:
  5865                           
  5866                           ;Main.c: 1289: latch_output();
  5867  0F36  158A  20BB  158A   	fcall	_latch_output
  5868  0F39                     l3103:
  5869  0F39  3001               	movlw	1
  5870  0F3A  1283               	bcf	3,5	;RP0=0, select bank0
  5871  0F3B  1303               	bcf	3,6	;RP1=0, select bank0
  5872  0F3C  07AA               	addwf	animation_green_arrow@i_243,f
  5873  0F3D  1803               	skipnc
  5874  0F3E  0AAB               	incf	animation_green_arrow@i_243+1,f
  5875  0F3F  3000               	movlw	0
  5876  0F40  07AB               	addwf	animation_green_arrow@i_243+1,f
  5877  0F41  2EEA               	goto	l3079
  5878  0F42                     l3107:
  5879  0F42  1283               	bcf	3,5	;RP0=0, select bank0
  5880  0F43  1303               	bcf	3,6	;RP1=0, select bank0
  5881  0F44  082C               	movf	animation_green_arrow@ani_timer,w
  5882  0F45  0244               	subwf	_timer_count,w
  5883  0F46  1C03               	skipc
  5884  0F47  2F49               	goto	u4091
  5885  0F48  2F4A               	goto	u4090
  5886  0F49                     u4091:
  5887  0F49  2EE6               	goto	l3077
  5888  0F4A                     u4090:
  5889  0F4A                     l3109:
  5890                           
  5891                           ;Main.c: 1290: };Main.c: 1291: };Main.c: 1292: timer_count = 0;
  5892  0F4A  01C4               	clrf	_timer_count
  5893                           
  5894                           ;Main.c: 1295: while (timer_count < ani_timer) {
  5895  0F4B  2FA1               	goto	l3139
  5896  0F4C                     l3111:
  5897                           
  5898                           ;Main.c: 1296: for (int i = 6; i < 8; i++) {
  5899  0F4C  3006               	movlw	6
  5900  0F4D  00A6               	movwf	animation_green_arrow@i_244
  5901  0F4E  3000               	movlw	0
  5902  0F4F  00A7               	movwf	animation_green_arrow@i_244+1
  5903  0F50                     l3113:
  5904  0F50  0827               	movf	animation_green_arrow@i_244+1,w
  5905  0F51  3A80               	xorlw	128
  5906  0F52  00FF               	movwf	btemp+1
  5907  0F53  3080               	movlw	128
  5908  0F54  027F               	subwf	btemp+1,w
  5909  0F55  1D03               	skipz
  5910  0F56  2F59               	goto	u4105
  5911  0F57  3008               	movlw	8
  5912  0F58  0226               	subwf	animation_green_arrow@i_244,w
  5913  0F59                     u4105:
  5914  0F59  1C03               	skipc
  5915  0F5A  2F5C               	goto	u4101
  5916  0F5B  2F5D               	goto	u4100
  5917  0F5C                     u4101:
  5918  0F5C  2F5E               	goto	l401
  5919  0F5D                     u4100:
  5920  0F5D  2FA1               	goto	l3139
  5921  0F5E                     l401:
  5922                           
  5923                           ;Main.c: 1297: row = 0b00000001;
  5924  0F5E  1283               	bcf	3,5	;RP0=0, select bank0
  5925  0F5F  1303               	bcf	3,6	;RP1=0, select bank0
  5926  0F60  01C0               	clrf	animation_green_arrow@row
  5927  0F61  0AC0               	incf	animation_green_arrow@row,f
  5928  0F62                     l3117:
  5929                           
  5930                           ;Main.c: 1299: if (i != 0) {
  5931  0F62  0826               	movf	animation_green_arrow@i_244,w
  5932  0F63  0427               	iorwf	animation_green_arrow@i_244+1,w
  5933  0F64  1903               	btfsc	3,2
  5934  0F65  2F67               	goto	u4111
  5935  0F66  2F68               	goto	u4110
  5936  0F67                     u4111:
  5937  0F67  2F75               	goto	l3121
  5938  0F68                     u4110:
  5939  0F68                     l3119:
  5940                           
  5941                           ;Main.c: 1300: row = (row << i);
  5942  0F68  0840               	movf	animation_green_arrow@row,w
  5943  0F69  00A0               	movwf	??_animation_green_arrow
  5944  0F6A  0A26               	incf	animation_green_arrow@i_244,w
  5945  0F6B  2F6E               	goto	u4124
  5946  0F6C                     u4125:
  5947  0F6C  1003               	clrc
  5948  0F6D  0DA0               	rlf	??_animation_green_arrow,f
  5949  0F6E                     u4124:
  5950  0F6E  3EFF               	addlw	-1
  5951  0F6F  1D03               	skipz
  5952  0F70  2F6C               	goto	u4125
  5953  0F71  0820               	movf	??_animation_green_arrow,w
  5954  0F72  00A1               	movwf	??_animation_green_arrow+1
  5955  0F73  0821               	movf	??_animation_green_arrow+1,w
  5956  0F74  00C0               	movwf	animation_green_arrow@row
  5957  0F75                     l3121:
  5958                           
  5959                           ;Main.c: 1301: };Main.c: 1303: input_data(row);
  5960  0F75  0840               	movf	animation_green_arrow@row,w
  5961  0F76  158A  2118  158A   	fcall	_input_data
  5962  0F79                     l3123:
  5963                           
  5964                           ;Main.c: 1305: if (i == 6 || i == 7) {
  5965  0F79  3006               	movlw	6
  5966  0F7A  1283               	bcf	3,5	;RP0=0, select bank0
  5967  0F7B  1303               	bcf	3,6	;RP1=0, select bank0
  5968  0F7C  0626               	xorwf	animation_green_arrow@i_244,w
  5969  0F7D  0427               	iorwf	animation_green_arrow@i_244+1,w
  5970  0F7E  1903               	btfsc	3,2
  5971  0F7F  2F81               	goto	u4131
  5972  0F80  2F82               	goto	u4130
  5973  0F81                     u4131:
  5974  0F81  2F89               	goto	l3127
  5975  0F82                     u4130:
  5976  0F82                     l3125:
  5977  0F82  3007               	movlw	7
  5978  0F83  0626               	xorwf	animation_green_arrow@i_244,w
  5979  0F84  0427               	iorwf	animation_green_arrow@i_244+1,w
  5980  0F85  1D03               	btfss	3,2
  5981  0F86  2F88               	goto	u4141
  5982  0F87  2F89               	goto	u4140
  5983  0F88                     u4141:
  5984  0F88  2F8D               	goto	l3129
  5985  0F89                     u4140:
  5986  0F89                     l3127:
  5987                           
  5988                           ;Main.c: 1307: col = 60;
  5989  0F89  303C               	movlw	60
  5990  0F8A  00A0               	movwf	??_animation_green_arrow
  5991  0F8B  0820               	movf	??_animation_green_arrow,w
  5992  0F8C  00BF               	movwf	animation_green_arrow@col
  5993  0F8D                     l3129:
  5994                           
  5995                           ;Main.c: 1309: };Main.c: 1310: input_data(col);
  5996  0F8D  083F               	movf	animation_green_arrow@col,w
  5997  0F8E  158A  2118  158A   	fcall	_input_data
  5998  0F91                     l3131:
  5999                           
  6000                           ;Main.c: 1311: input_data(0);
  6001  0F91  3000               	movlw	0
  6002  0F92  158A  2118  158A   	fcall	_input_data
  6003  0F95                     l3133:
  6004                           
  6005                           ;Main.c: 1313: latch_output();
  6006  0F95  158A  20BB  158A   	fcall	_latch_output
  6007  0F98                     l3135:
  6008  0F98  3001               	movlw	1
  6009  0F99  1283               	bcf	3,5	;RP0=0, select bank0
  6010  0F9A  1303               	bcf	3,6	;RP1=0, select bank0
  6011  0F9B  07A6               	addwf	animation_green_arrow@i_244,f
  6012  0F9C  1803               	skipnc
  6013  0F9D  0AA7               	incf	animation_green_arrow@i_244+1,f
  6014  0F9E  3000               	movlw	0
  6015  0F9F  07A7               	addwf	animation_green_arrow@i_244+1,f
  6016  0FA0  2F50               	goto	l3113
  6017  0FA1                     l3139:
  6018  0FA1  1283               	bcf	3,5	;RP0=0, select bank0
  6019  0FA2  1303               	bcf	3,6	;RP1=0, select bank0
  6020  0FA3  082C               	movf	animation_green_arrow@ani_timer,w
  6021  0FA4  0244               	subwf	_timer_count,w
  6022  0FA5  1C03               	skipc
  6023  0FA6  2FA8               	goto	u4151
  6024  0FA7  2FA9               	goto	u4150
  6025  0FA8                     u4151:
  6026  0FA8  2F4C               	goto	l3111
  6027  0FA9                     u4150:
  6028  0FA9                     l3141:
  6029                           
  6030                           ;Main.c: 1314: };Main.c: 1315: };Main.c: 1316: timer_count = 0;
  6031  0FA9  01C4               	clrf	_timer_count
  6032                           
  6033                           ;Main.c: 1319: while (timer_count < ani_timer) {
  6034  0FAA  2FF6               	goto	l3169
  6035  0FAB                     l3143:
  6036                           
  6037                           ;Main.c: 1320: for (int i = 7; i < 8; i++) {
  6038  0FAB  3007               	movlw	7
  6039  0FAC  00A2               	movwf	animation_green_arrow@i_245
  6040  0FAD  3000               	movlw	0
  6041  0FAE  00A3               	movwf	animation_green_arrow@i_245+1
  6042  0FAF                     l3145:
  6043  0FAF  0823               	movf	animation_green_arrow@i_245+1,w
  6044  0FB0  3A80               	xorlw	128
  6045  0FB1  00FF               	movwf	btemp+1
  6046  0FB2  3080               	movlw	128
  6047  0FB3  027F               	subwf	btemp+1,w
  6048  0FB4  1D03               	skipz
  6049  0FB5  2FB8               	goto	u4165
  6050  0FB6  3008               	movlw	8
  6051  0FB7  0222               	subwf	animation_green_arrow@i_245,w
  6052  0FB8                     u4165:
  6053  0FB8  1C03               	skipc
  6054  0FB9  2FBB               	goto	u4161
  6055  0FBA  2FBC               	goto	u4160
  6056  0FBB                     u4161:
  6057  0FBB  2FBD               	goto	l410
  6058  0FBC                     u4160:
  6059  0FBC  2FF6               	goto	l3169
  6060  0FBD                     l410:
  6061                           
  6062                           ;Main.c: 1321: row = 0b00000001;
  6063  0FBD  1283               	bcf	3,5	;RP0=0, select bank0
  6064  0FBE  1303               	bcf	3,6	;RP1=0, select bank0
  6065  0FBF  01C0               	clrf	animation_green_arrow@row
  6066  0FC0  0AC0               	incf	animation_green_arrow@row,f
  6067  0FC1                     l3149:
  6068                           
  6069                           ;Main.c: 1323: if (i != 0) {
  6070  0FC1  0822               	movf	animation_green_arrow@i_245,w
  6071  0FC2  0423               	iorwf	animation_green_arrow@i_245+1,w
  6072  0FC3  1903               	btfsc	3,2
  6073  0FC4  2FC6               	goto	u4171
  6074  0FC5  2FC7               	goto	u4170
  6075  0FC6                     u4171:
  6076  0FC6  2FD4               	goto	l3153
  6077  0FC7                     u4170:
  6078  0FC7                     l3151:
  6079                           
  6080                           ;Main.c: 1324: row = (row << i);
  6081  0FC7  0840               	movf	animation_green_arrow@row,w
  6082  0FC8  00A0               	movwf	??_animation_green_arrow
  6083  0FC9  0A22               	incf	animation_green_arrow@i_245,w
  6084  0FCA  2FCD               	goto	u4184
  6085  0FCB                     u4185:
  6086  0FCB  1003               	clrc
  6087  0FCC  0DA0               	rlf	??_animation_green_arrow,f
  6088  0FCD                     u4184:
  6089  0FCD  3EFF               	addlw	-1
  6090  0FCE  1D03               	skipz
  6091  0FCF  2FCB               	goto	u4185
  6092  0FD0  0820               	movf	??_animation_green_arrow,w
  6093  0FD1  00A1               	movwf	??_animation_green_arrow+1
  6094  0FD2  0821               	movf	??_animation_green_arrow+1,w
  6095  0FD3  00C0               	movwf	animation_green_arrow@row
  6096  0FD4                     l3153:
  6097                           
  6098                           ;Main.c: 1325: };Main.c: 1327: input_data(row);
  6099  0FD4  0840               	movf	animation_green_arrow@row,w
  6100  0FD5  158A  2118  158A   	fcall	_input_data
  6101  0FD8                     l3155:
  6102                           
  6103                           ;Main.c: 1329: if (i == 7) {
  6104  0FD8  3007               	movlw	7
  6105  0FD9  1283               	bcf	3,5	;RP0=0, select bank0
  6106  0FDA  1303               	bcf	3,6	;RP1=0, select bank0
  6107  0FDB  0622               	xorwf	animation_green_arrow@i_245,w
  6108  0FDC  0423               	iorwf	animation_green_arrow@i_245+1,w
  6109  0FDD  1D03               	btfss	3,2
  6110  0FDE  2FE0               	goto	u4191
  6111  0FDF  2FE1               	goto	u4190
  6112  0FE0                     u4191:
  6113  0FE0  2FE2               	goto	l3159
  6114  0FE1                     u4190:
  6115  0FE1                     l3157:
  6116                           
  6117                           ;Main.c: 1331: col = 0;
  6118  0FE1  01BF               	clrf	animation_green_arrow@col
  6119  0FE2                     l3159:
  6120                           
  6121                           ;Main.c: 1333: };Main.c: 1334: input_data(col);
  6122  0FE2  083F               	movf	animation_green_arrow@col,w
  6123  0FE3  158A  2118  158A   	fcall	_input_data
  6124  0FE6                     l3161:
  6125                           
  6126                           ;Main.c: 1335: input_data(0);
  6127  0FE6  3000               	movlw	0
  6128  0FE7  158A  2118  158A   	fcall	_input_data
  6129  0FEA                     l3163:
  6130                           
  6131                           ;Main.c: 1337: latch_output();
  6132  0FEA  158A  20BB  158A   	fcall	_latch_output
  6133  0FED                     l3165:
  6134  0FED  3001               	movlw	1
  6135  0FEE  1283               	bcf	3,5	;RP0=0, select bank0
  6136  0FEF  1303               	bcf	3,6	;RP1=0, select bank0
  6137  0FF0  07A2               	addwf	animation_green_arrow@i_245,f
  6138  0FF1  1803               	skipnc
  6139  0FF2  0AA3               	incf	animation_green_arrow@i_245+1,f
  6140  0FF3  3000               	movlw	0
  6141  0FF4  07A3               	addwf	animation_green_arrow@i_245+1,f
  6142  0FF5  2FAF               	goto	l3145
  6143  0FF6                     l3169:
  6144  0FF6  1283               	bcf	3,5	;RP0=0, select bank0
  6145  0FF7  1303               	bcf	3,6	;RP1=0, select bank0
  6146  0FF8  082C               	movf	animation_green_arrow@ani_timer,w
  6147  0FF9  0244               	subwf	_timer_count,w
  6148  0FFA  1C03               	skipc
  6149  0FFB  2FFD               	goto	u4201
  6150  0FFC  2FFE               	goto	u4200
  6151  0FFD                     u4201:
  6152  0FFD  2FAB               	goto	l3143
  6153  0FFE                     u4200:
  6154  0FFE                     l3171:
  6155                           
  6156                           ;Main.c: 1338: };Main.c: 1339: };Main.c: 1340: timer_count = 0;
  6157  0FFE  01C4               	clrf	_timer_count
  6158  0FFF                     l415:
  6159  0FFF  0008               	return
  6160  1000                     __end_of_animation_green_arrow:
  6161                           
  6162                           	psect	text5
  6163  0766                     __ptext5:	
  6164 ;; *************** function _green_arrow *****************
  6165 ;; Defined at:
  6166 ;;		line 303 in file "Main.c"
  6167 ;; Parameters:    Size  Location     Type
  6168 ;;		None
  6169 ;; Auto vars:     Size  Location     Type
  6170 ;;  row             1    8[COMMON] unsigned char 
  6171 ;;  col             1    7[COMMON] unsigned char 
  6172 ;;  i               2    9[COMMON] int 
  6173 ;; Return value:  Size  Location     Type
  6174 ;;                  1    wreg      void 
  6175 ;; Registers used:
  6176 ;;		wreg, status,2, status,0, btemp+1, pclath, cstack
  6177 ;; Tracked objects:
  6178 ;;		On entry : 0/0
  6179 ;;		On exit  : 0/0
  6180 ;;		Unchanged: 0/0
  6181 ;; Data sizes:     COMMON   BANK0   BANK1   BANK2
  6182 ;;      Params:         0       0       0       0
  6183 ;;      Locals:         4       0       0       0
  6184 ;;      Temps:          2       0       0       0
  6185 ;;      Totals:         6       0       0       0
  6186 ;;Total ram usage:        6 bytes
  6187 ;; Hardware stack levels used: 1
  6188 ;; Hardware stack levels required when called: 4
  6189 ;; This function calls:
  6190 ;;		_input_data
  6191 ;;		_latch_output
  6192 ;; This function is called by:
  6193 ;;		_animation_green_arrow
  6194 ;; This function uses a non-reentrant model
  6195 ;;
  6196                           
  6197                           
  6198                           ;psect for function _green_arrow
  6199  0766                     _green_arrow:
  6200  0766                     l2483:	
  6201                           ;incstack = 0
  6202                           ; Regs used in _green_arrow: [wreg+status,2+status,0+btemp+1+pclath+cstack]
  6203                           
  6204                           
  6205                           ;Main.c: 304: for (int i = 0; i < 8; i++) {
  6206  0766  01F9               	clrf	green_arrow@i
  6207  0767  01FA               	clrf	green_arrow@i+1
  6208  0768                     l90:
  6209                           
  6210                           ;Main.c: 305: unsigned char row = 0b00000001;
  6211  0768  01F8               	clrf	green_arrow@row
  6212  0769  0AF8               	incf	green_arrow@row,f
  6213  076A                     l2489:
  6214  076A                     l2491:
  6215                           
  6216                           ;Main.c: 308: if (i != 0) {
  6217  076A  0879               	movf	green_arrow@i,w
  6218  076B  047A               	iorwf	green_arrow@i+1,w
  6219  076C  1903               	btfsc	3,2
  6220  076D  2F6F               	goto	u2801
  6221  076E  2F70               	goto	u2800
  6222  076F                     u2801:
  6223  076F  2F7D               	goto	l2495
  6224  0770                     u2800:
  6225  0770                     l2493:
  6226                           
  6227                           ;Main.c: 309: row = (row << i);
  6228  0770  0878               	movf	green_arrow@row,w
  6229  0771  00F5               	movwf	??_green_arrow
  6230  0772  0A79               	incf	green_arrow@i,w
  6231  0773  2F76               	goto	u2814
  6232  0774                     u2815:
  6233  0774  1003               	clrc
  6234  0775  0DF5               	rlf	??_green_arrow,f
  6235  0776                     u2814:
  6236  0776  3EFF               	addlw	-1
  6237  0777  1D03               	skipz
  6238  0778  2F74               	goto	u2815
  6239  0779  0875               	movf	??_green_arrow,w
  6240  077A  00F6               	movwf	??_green_arrow+1
  6241  077B  0876               	movf	??_green_arrow+1,w
  6242  077C  00F8               	movwf	green_arrow@row
  6243  077D                     l2495:
  6244                           
  6245                           ;Main.c: 310: };Main.c: 312: input_data(row);
  6246  077D  0878               	movf	green_arrow@row,w
  6247  077E  158A  2118  118A   	fcall	_input_data
  6248  0781                     l2497:
  6249                           
  6250                           ;Main.c: 314: if (i == 7) {
  6251  0781  3007               	movlw	7
  6252  0782  0679               	xorwf	green_arrow@i,w
  6253  0783  047A               	iorwf	green_arrow@i+1,w
  6254  0784  1D03               	btfss	3,2
  6255  0785  2F87               	goto	u2821
  6256  0786  2F88               	goto	u2820
  6257  0787                     u2821:
  6258  0787  2F8D               	goto	l2501
  6259  0788                     u2820:
  6260  0788                     l2499:
  6261                           
  6262                           ;Main.c: 316: col = 24;
  6263  0788  3018               	movlw	24
  6264  0789  00F5               	movwf	??_green_arrow
  6265  078A  0875               	movf	??_green_arrow,w
  6266  078B  00F7               	movwf	green_arrow@col
  6267                           
  6268                           ;Main.c: 317: } else if (i == 0 || i == 1 || i == 2 || i == 3 || i == 6) {
  6269  078C  2FC3               	goto	l2519
  6270  078D                     l2501:
  6271  078D  0879               	movf	green_arrow@i,w
  6272  078E  047A               	iorwf	green_arrow@i+1,w
  6273  078F  1903               	btfsc	3,2
  6274  0790  2F92               	goto	u2831
  6275  0791  2F93               	goto	u2830
  6276  0792                     u2831:
  6277  0792  2FAE               	goto	l2511
  6278  0793                     u2830:
  6279  0793                     l2503:
  6280  0793  0379               	decf	green_arrow@i,w
  6281  0794  047A               	iorwf	green_arrow@i+1,w
  6282  0795  1903               	btfsc	3,2
  6283  0796  2F98               	goto	u2841
  6284  0797  2F99               	goto	u2840
  6285  0798                     u2841:
  6286  0798  2FAE               	goto	l2511
  6287  0799                     u2840:
  6288  0799                     l2505:
  6289  0799  3002               	movlw	2
  6290  079A  0679               	xorwf	green_arrow@i,w
  6291  079B  047A               	iorwf	green_arrow@i+1,w
  6292  079C  1903               	btfsc	3,2
  6293  079D  2F9F               	goto	u2851
  6294  079E  2FA0               	goto	u2850
  6295  079F                     u2851:
  6296  079F  2FAE               	goto	l2511
  6297  07A0                     u2850:
  6298  07A0                     l2507:
  6299  07A0  3003               	movlw	3
  6300  07A1  0679               	xorwf	green_arrow@i,w
  6301  07A2  047A               	iorwf	green_arrow@i+1,w
  6302  07A3  1903               	btfsc	3,2
  6303  07A4  2FA6               	goto	u2861
  6304  07A5  2FA7               	goto	u2860
  6305  07A6                     u2861:
  6306  07A6  2FAE               	goto	l2511
  6307  07A7                     u2860:
  6308  07A7                     l2509:
  6309  07A7  3006               	movlw	6
  6310  07A8  0679               	xorwf	green_arrow@i,w
  6311  07A9  047A               	iorwf	green_arrow@i+1,w
  6312  07AA  1D03               	btfss	3,2
  6313  07AB  2FAD               	goto	u2871
  6314  07AC  2FAE               	goto	u2870
  6315  07AD                     u2871:
  6316  07AD  2FB3               	goto	l2513
  6317  07AE                     u2870:
  6318  07AE                     l2511:
  6319                           
  6320                           ;Main.c: 319: col = 60;
  6321  07AE  303C               	movlw	60
  6322  07AF  00F5               	movwf	??_green_arrow
  6323  07B0  0875               	movf	??_green_arrow,w
  6324  07B1  00F7               	movwf	green_arrow@col
  6325                           
  6326                           ;Main.c: 320: } else if (i == 5) {
  6327  07B2  2FC3               	goto	l2519
  6328  07B3                     l2513:
  6329  07B3  3005               	movlw	5
  6330  07B4  0679               	xorwf	green_arrow@i,w
  6331  07B5  047A               	iorwf	green_arrow@i+1,w
  6332  07B6  1D03               	btfss	3,2
  6333  07B7  2FB9               	goto	u2881
  6334  07B8  2FBA               	goto	u2880
  6335  07B9                     u2881:
  6336  07B9  2FBF               	goto	l2517
  6337  07BA                     u2880:
  6338  07BA                     l2515:
  6339                           
  6340                           ;Main.c: 322: col = 126;
  6341  07BA  307E               	movlw	126
  6342  07BB  00F5               	movwf	??_green_arrow
  6343  07BC  0875               	movf	??_green_arrow,w
  6344  07BD  00F7               	movwf	green_arrow@col
  6345                           
  6346                           ;Main.c: 323: } else {
  6347  07BE  2FC3               	goto	l2519
  6348  07BF                     l2517:
  6349                           
  6350                           ;Main.c: 325: col = 255;
  6351  07BF  30FF               	movlw	255
  6352  07C0  00F5               	movwf	??_green_arrow
  6353  07C1  0875               	movf	??_green_arrow,w
  6354  07C2  00F7               	movwf	green_arrow@col
  6355  07C3                     l2519:
  6356                           
  6357                           ;Main.c: 326: };Main.c: 327: input_data(col);
  6358  07C3  0877               	movf	green_arrow@col,w
  6359  07C4  158A  2118  118A   	fcall	_input_data
  6360  07C7                     l2521:
  6361                           
  6362                           ;Main.c: 328: input_data(0);
  6363  07C7  3000               	movlw	0
  6364  07C8  158A  2118  118A   	fcall	_input_data
  6365  07CB                     l2523:
  6366                           
  6367                           ;Main.c: 330: latch_output();
  6368  07CB  158A  20BB  118A   	fcall	_latch_output
  6369  07CE                     l2525:
  6370  07CE  3001               	movlw	1
  6371  07CF  07F9               	addwf	green_arrow@i,f
  6372  07D0  1803               	skipnc
  6373  07D1  0AFA               	incf	green_arrow@i+1,f
  6374  07D2  3000               	movlw	0
  6375  07D3  07FA               	addwf	green_arrow@i+1,f
  6376  07D4                     l2527:
  6377  07D4  087A               	movf	green_arrow@i+1,w
  6378  07D5  3A80               	xorlw	128
  6379  07D6  00FF               	movwf	btemp+1
  6380  07D7  3080               	movlw	128
  6381  07D8  027F               	subwf	btemp+1,w
  6382  07D9  1D03               	skipz
  6383  07DA  2FDD               	goto	u2895
  6384  07DB  3008               	movlw	8
  6385  07DC  0279               	subwf	green_arrow@i,w
  6386  07DD                     u2895:
  6387  07DD  1C03               	skipc
  6388  07DE  2FE0               	goto	u2891
  6389  07DF  2FE1               	goto	u2890
  6390  07E0                     u2891:
  6391  07E0  2F68               	goto	l90
  6392  07E1                     u2890:
  6393  07E1                     l2529:
  6394                           
  6395                           ;Main.c: 332: };Main.c: 333: input_data(0b10000000);
  6396  07E1  3080               	movlw	128
  6397  07E2  158A  2118  118A   	fcall	_input_data
  6398                           
  6399                           ;Main.c: 334: input_data(0);
  6400  07E5  3000               	movlw	0
  6401  07E6  158A  2118  118A   	fcall	_input_data
  6402                           
  6403                           ;Main.c: 335: input_data(0);
  6404  07E9  3000               	movlw	0
  6405  07EA  158A  2118  118A   	fcall	_input_data
  6406                           
  6407                           ;Main.c: 336: latch_output();
  6408  07ED  158A  20BB  118A   	fcall	_latch_output
  6409  07F0                     l101:
  6410  07F0  0008               	return
  6411  07F1                     __end_of_green_arrow:
  6412                           
  6413                           	psect	text6
  6414  08BB                     __ptext6:	
  6415 ;; *************** function _latch_output *****************
  6416 ;; Defined at:
  6417 ;;		line 277 in file "Main.c"
  6418 ;; Parameters:    Size  Location     Type
  6419 ;;		None
  6420 ;; Auto vars:     Size  Location     Type
  6421 ;;		None
  6422 ;; Return value:  Size  Location     Type
  6423 ;;                  1    wreg      void 
  6424 ;; Registers used:
  6425 ;;		wreg
  6426 ;; Tracked objects:
  6427 ;;		On entry : 0/0
  6428 ;;		On exit  : 0/0
  6429 ;;		Unchanged: 0/0
  6430 ;; Data sizes:     COMMON   BANK0   BANK1   BANK2
  6431 ;;      Params:         0       0       0       0
  6432 ;;      Locals:         0       0       0       0
  6433 ;;      Temps:          1       0       0       0
  6434 ;;      Totals:         1       0       0       0
  6435 ;;Total ram usage:        1 bytes
  6436 ;; Hardware stack levels used: 1
  6437 ;; Hardware stack levels required when called: 1
  6438 ;; This function calls:
  6439 ;;		Nothing
  6440 ;; This function is called by:
  6441 ;;		_green_arrow
  6442 ;;		_red_arrow
  6443 ;;		_animation_red_arrow
  6444 ;;		_animation_green_arrow
  6445 ;; This function uses a non-reentrant model
  6446 ;;
  6447                           
  6448                           
  6449                           ;psect for function _latch_output
  6450  08BB                     _latch_output:
  6451  08BB                     l2475:	
  6452                           ;incstack = 0
  6453                           ; Regs used in _latch_output: [wreg]
  6454                           
  6455                           
  6456                           ;Main.c: 278: PORTCbits.RC4 = 0;
  6457  08BB  1283               	bcf	3,5	;RP0=0, select bank0
  6458  08BC  1303               	bcf	3,6	;RP1=0, select bank0
  6459  08BD  1207               	bcf	7,4	;volatile
  6460  08BE                     l2477:
  6461                           
  6462                           ;Main.c: 279: _delay((unsigned long)((5)*(8000000/4000000.0)));
  6463  08BE  3003               	movlw	3
  6464  08BF  00F3               	movwf	??_latch_output
  6465  08C0                     u5457:
  6466  08C0  0BF3               	decfsz	??_latch_output,f
  6467  08C1  28C0               	goto	u5457
  6468  08C2                     l2479:
  6469                           
  6470                           ;Main.c: 280: PORTCbits.RC4 = 1;
  6471  08C2  1283               	bcf	3,5	;RP0=0, select bank0
  6472  08C3  1303               	bcf	3,6	;RP1=0, select bank0
  6473  08C4  1607               	bsf	7,4	;volatile
  6474                           
  6475                           ;Main.c: 282: _delay((unsigned long)((5)*(8000000/4000000.0)));
  6476  08C5  3003               	movlw	3
  6477  08C6  00F3               	movwf	??_latch_output
  6478  08C7                     u5467:
  6479  08C7  0BF3               	decfsz	??_latch_output,f
  6480  08C8  28C7               	goto	u5467
  6481  08C9                     l2481:
  6482                           
  6483                           ;Main.c: 283: PORTCbits.RC4 = 0;
  6484  08C9  1283               	bcf	3,5	;RP0=0, select bank0
  6485  08CA  1303               	bcf	3,6	;RP1=0, select bank0
  6486  08CB  1207               	bcf	7,4	;volatile
  6487                           
  6488                           ;Main.c: 284: _delay((unsigned long)((5)*(8000000/4000000.0)));
  6489  08CC  3003               	movlw	3
  6490  08CD  00F3               	movwf	??_latch_output
  6491  08CE                     u5477:
  6492  08CE  0BF3               	decfsz	??_latch_output,f
  6493  08CF  28CE               	goto	u5477
  6494  08D0                     l87:
  6495  08D0  0008               	return
  6496  08D1                     __end_of_latch_output:
  6497                           
  6498                           	psect	text7
  6499  0918                     __ptext7:	
  6500 ;; *************** function _input_data *****************
  6501 ;; Defined at:
  6502 ;;		line 169 in file "Main.c"
  6503 ;; Parameters:    Size  Location     Type
  6504 ;;  num             1    wreg     unsigned char 
  6505 ;; Auto vars:     Size  Location     Type
  6506 ;;  num             1    4[COMMON] unsigned char 
  6507 ;; Return value:  Size  Location     Type
  6508 ;;                  1    wreg      void 
  6509 ;; Registers used:
  6510 ;;		wreg, status,2, status,0, pclath, cstack
  6511 ;; Tracked objects:
  6512 ;;		On entry : 0/0
  6513 ;;		On exit  : 0/0
  6514 ;;		Unchanged: 0/0
  6515 ;; Data sizes:     COMMON   BANK0   BANK1   BANK2
  6516 ;;      Params:         0       0       0       0
  6517 ;;      Locals:         1       0       0       0
  6518 ;;      Temps:          0       0       0       0
  6519 ;;      Totals:         1       0       0       0
  6520 ;;Total ram usage:        1 bytes
  6521 ;; Hardware stack levels used: 1
  6522 ;; Hardware stack levels required when called: 3
  6523 ;; This function calls:
  6524 ;;		_input_high
  6525 ;;		_input_low
  6526 ;; This function is called by:
  6527 ;;		_green_arrow
  6528 ;;		_red_arrow
  6529 ;;		_animation_red_arrow
  6530 ;;		_animation_green_arrow
  6531 ;; This function uses a non-reentrant model
  6532 ;;
  6533                           
  6534                           
  6535                           ;psect for function _input_data
  6536  0918                     _input_data:
  6537                           
  6538                           ;incstack = 0
  6539                           ; Regs used in _input_data: [wreg+status,2+status,0+pclath+cstack]
  6540                           ;input_data@num stored from wreg
  6541  0918  00F4               	movwf	input_data@num
  6542  0919                     l2427:
  6543                           
  6544                           ;Main.c: 176: if ((num & 0x01) == 0x01) {
  6545  0919  1C74               	btfss	input_data@num,0
  6546  091A  291C               	goto	u2721
  6547  091B  291D               	goto	u2720
  6548  091C                     u2721:
  6549  091C  2921               	goto	l2431
  6550  091D                     u2720:
  6551  091D                     l2429:
  6552                           
  6553                           ;Main.c: 179: input_high();
  6554  091D  118A  27F8  158A   	fcall	_input_high
  6555                           
  6556                           ;Main.c: 181: } else input_low();
  6557  0920  2924               	goto	l2433
  6558  0921                     l2431:
  6559  0921  118A  27F1  158A   	fcall	_input_low
  6560  0924                     l2433:
  6561                           
  6562                           ;Main.c: 185: if ((num & 0x02) == 0x02) {
  6563  0924  1CF4               	btfss	input_data@num,1
  6564  0925  2927               	goto	u2731
  6565  0926  2928               	goto	u2730
  6566  0927                     u2731:
  6567  0927  292C               	goto	l2437
  6568  0928                     u2730:
  6569  0928                     l2435:
  6570                           
  6571                           ;Main.c: 188: input_high();
  6572  0928  118A  27F8  158A   	fcall	_input_high
  6573                           
  6574                           ;Main.c: 190: } else input_low();
  6575  092B  292F               	goto	l2439
  6576  092C                     l2437:
  6577  092C  118A  27F1  158A   	fcall	_input_low
  6578  092F                     l2439:
  6579                           
  6580                           ;Main.c: 194: if ((num & 0x04) == 0x04) {
  6581  092F  1D74               	btfss	input_data@num,2
  6582  0930  2932               	goto	u2741
  6583  0931  2933               	goto	u2740
  6584  0932                     u2741:
  6585  0932  2937               	goto	l2443
  6586  0933                     u2740:
  6587  0933                     l2441:
  6588                           
  6589                           ;Main.c: 197: input_high();
  6590  0933  118A  27F8  158A   	fcall	_input_high
  6591                           
  6592                           ;Main.c: 199: } else input_low();
  6593  0936  293A               	goto	l2445
  6594  0937                     l2443:
  6595  0937  118A  27F1  158A   	fcall	_input_low
  6596  093A                     l2445:
  6597                           
  6598                           ;Main.c: 203: if ((num & 0x08) == 0x08) {
  6599  093A  1DF4               	btfss	input_data@num,3
  6600  093B  293D               	goto	u2751
  6601  093C  293E               	goto	u2750
  6602  093D                     u2751:
  6603  093D  2942               	goto	l2449
  6604  093E                     u2750:
  6605  093E                     l2447:
  6606                           
  6607                           ;Main.c: 206: input_high();
  6608  093E  118A  27F8  158A   	fcall	_input_high
  6609                           
  6610                           ;Main.c: 208: } else input_low();
  6611  0941  2945               	goto	l2451
  6612  0942                     l2449:
  6613  0942  118A  27F1  158A   	fcall	_input_low
  6614  0945                     l2451:
  6615                           
  6616                           ;Main.c: 212: if ((num & 0x10) == 0x10) {
  6617  0945  1E74               	btfss	input_data@num,4
  6618  0946  2948               	goto	u2761
  6619  0947  2949               	goto	u2760
  6620  0948                     u2761:
  6621  0948  294D               	goto	l2455
  6622  0949                     u2760:
  6623  0949                     l2453:
  6624                           
  6625                           ;Main.c: 215: input_high();
  6626  0949  118A  27F8  158A   	fcall	_input_high
  6627                           
  6628                           ;Main.c: 217: } else input_low();
  6629  094C  2950               	goto	l2457
  6630  094D                     l2455:
  6631  094D  118A  27F1  158A   	fcall	_input_low
  6632  0950                     l2457:
  6633                           
  6634                           ;Main.c: 221: if ((num & 0x20) == 0x20) {
  6635  0950  1EF4               	btfss	input_data@num,5
  6636  0951  2953               	goto	u2771
  6637  0952  2954               	goto	u2770
  6638  0953                     u2771:
  6639  0953  2958               	goto	l2461
  6640  0954                     u2770:
  6641  0954                     l2459:
  6642                           
  6643                           ;Main.c: 224: input_high();
  6644  0954  118A  27F8  158A   	fcall	_input_high
  6645                           
  6646                           ;Main.c: 226: } else input_low();
  6647  0957  295B               	goto	l2463
  6648  0958                     l2461:
  6649  0958  118A  27F1  158A   	fcall	_input_low
  6650  095B                     l2463:
  6651                           
  6652                           ;Main.c: 230: if ((num & 0x40) == 0x40) {
  6653  095B  1F74               	btfss	input_data@num,6
  6654  095C  295E               	goto	u2781
  6655  095D  295F               	goto	u2780
  6656  095E                     u2781:
  6657  095E  2963               	goto	l2467
  6658  095F                     u2780:
  6659  095F                     l2465:
  6660                           
  6661                           ;Main.c: 233: input_high();
  6662  095F  118A  27F8  158A   	fcall	_input_high
  6663                           
  6664                           ;Main.c: 235: } else input_low();
  6665  0962  2966               	goto	l2469
  6666  0963                     l2467:
  6667  0963  118A  27F1  158A   	fcall	_input_low
  6668  0966                     l2469:
  6669                           
  6670                           ;Main.c: 241: if ((num & 0x80) == 0x80) {
  6671  0966  1FF4               	btfss	input_data@num,7
  6672  0967  2969               	goto	u2791
  6673  0968  296A               	goto	u2790
  6674  0969                     u2791:
  6675  0969  296E               	goto	l2473
  6676  096A                     u2790:
  6677  096A                     l2471:
  6678                           
  6679                           ;Main.c: 244: input_high();
  6680  096A  118A  27F8  158A   	fcall	_input_high
  6681                           
  6682                           ;Main.c: 246: } else input_low();
  6683  096D  2971               	goto	l75
  6684  096E                     l2473:
  6685  096E  118A  27F1  158A   	fcall	_input_low
  6686  0971                     l75:
  6687  0971  0008               	return
  6688  0972                     __end_of_input_data:
  6689                           
  6690                           	psect	text8
  6691  07F1                     __ptext8:	
  6692 ;; *************** function _input_low *****************
  6693 ;; Defined at:
  6694 ;;		line 260 in file "Main.c"
  6695 ;; Parameters:    Size  Location     Type
  6696 ;;		None
  6697 ;; Auto vars:     Size  Location     Type
  6698 ;;		None
  6699 ;; Return value:  Size  Location     Type
  6700 ;;                  1    wreg      void 
  6701 ;; Registers used:
  6702 ;;		wreg, status,2, status,0, pclath, cstack
  6703 ;; Tracked objects:
  6704 ;;		On entry : 0/0
  6705 ;;		On exit  : 0/0
  6706 ;;		Unchanged: 0/0
  6707 ;; Data sizes:     COMMON   BANK0   BANK1   BANK2
  6708 ;;      Params:         0       0       0       0
  6709 ;;      Locals:         0       0       0       0
  6710 ;;      Temps:          0       0       0       0
  6711 ;;      Totals:         0       0       0       0
  6712 ;;Total ram usage:        0 bytes
  6713 ;; Hardware stack levels used: 1
  6714 ;; Hardware stack levels required when called: 2
  6715 ;; This function calls:
  6716 ;;		_serial_clock_pulse
  6717 ;; This function is called by:
  6718 ;;		_input_data
  6719 ;; This function uses a non-reentrant model
  6720 ;;
  6721                           
  6722                           
  6723                           ;psect for function _input_low
  6724  07F1                     _input_low:
  6725  07F1                     l2423:	
  6726                           ;incstack = 0
  6727                           ; Regs used in _input_low: [wreg+status,2+status,0+pclath+cstack]
  6728                           
  6729                           
  6730                           ;Main.c: 262: PORTBbits.RB4 = 0;
  6731  07F1  1283               	bcf	3,5	;RP0=0, select bank0
  6732  07F2  1303               	bcf	3,6	;RP1=0, select bank0
  6733  07F3  1206               	bcf	6,4	;volatile
  6734  07F4                     l2425:
  6735                           
  6736                           ;Main.c: 263: serial_clock_pulse();
  6737  07F4  158A  20A5  118A   	fcall	_serial_clock_pulse
  6738  07F7                     l81:
  6739  07F7  0008               	return
  6740  07F8                     __end_of_input_low:
  6741                           
  6742                           	psect	text9
  6743  07F8                     __ptext9:	
  6744 ;; *************** function _input_high *****************
  6745 ;; Defined at:
  6746 ;;		line 252 in file "Main.c"
  6747 ;; Parameters:    Size  Location     Type
  6748 ;;		None
  6749 ;; Auto vars:     Size  Location     Type
  6750 ;;		None
  6751 ;; Return value:  Size  Location     Type
  6752 ;;                  1    wreg      void 
  6753 ;; Registers used:
  6754 ;;		wreg, status,2, status,0, pclath, cstack
  6755 ;; Tracked objects:
  6756 ;;		On entry : 0/0
  6757 ;;		On exit  : 0/0
  6758 ;;		Unchanged: 0/0
  6759 ;; Data sizes:     COMMON   BANK0   BANK1   BANK2
  6760 ;;      Params:         0       0       0       0
  6761 ;;      Locals:         0       0       0       0
  6762 ;;      Temps:          0       0       0       0
  6763 ;;      Totals:         0       0       0       0
  6764 ;;Total ram usage:        0 bytes
  6765 ;; Hardware stack levels used: 1
  6766 ;; Hardware stack levels required when called: 2
  6767 ;; This function calls:
  6768 ;;		_serial_clock_pulse
  6769 ;; This function is called by:
  6770 ;;		_input_data
  6771 ;; This function uses a non-reentrant model
  6772 ;;
  6773                           
  6774                           
  6775                           ;psect for function _input_high
  6776  07F8                     _input_high:
  6777  07F8                     l2419:	
  6778                           ;incstack = 0
  6779                           ; Regs used in _input_high: [wreg+status,2+status,0+pclath+cstack]
  6780                           
  6781                           
  6782                           ;Main.c: 254: PORTBbits.RB4 = 1;
  6783  07F8  1283               	bcf	3,5	;RP0=0, select bank0
  6784  07F9  1303               	bcf	3,6	;RP1=0, select bank0
  6785  07FA  1606               	bsf	6,4	;volatile
  6786  07FB                     l2421:
  6787                           
  6788                           ;Main.c: 255: serial_clock_pulse();
  6789  07FB  158A  20A5  118A   	fcall	_serial_clock_pulse
  6790  07FE                     l78:
  6791  07FE  0008               	return
  6792  07FF                     __end_of_input_high:
  6793                           
  6794                           	psect	text10
  6795  08A5                     __ptext10:	
  6796 ;; *************** function _serial_clock_pulse *****************
  6797 ;; Defined at:
  6798 ;;		line 268 in file "Main.c"
  6799 ;; Parameters:    Size  Location     Type
  6800 ;;		None
  6801 ;; Auto vars:     Size  Location     Type
  6802 ;;		None
  6803 ;; Return value:  Size  Location     Type
  6804 ;;                  1    wreg      void 
  6805 ;; Registers used:
  6806 ;;		wreg
  6807 ;; Tracked objects:
  6808 ;;		On entry : 0/0
  6809 ;;		On exit  : 0/0
  6810 ;;		Unchanged: 0/0
  6811 ;; Data sizes:     COMMON   BANK0   BANK1   BANK2
  6812 ;;      Params:         0       0       0       0
  6813 ;;      Locals:         0       0       0       0
  6814 ;;      Temps:          1       0       0       0
  6815 ;;      Totals:         1       0       0       0
  6816 ;;Total ram usage:        1 bytes
  6817 ;; Hardware stack levels used: 1
  6818 ;; Hardware stack levels required when called: 1
  6819 ;; This function calls:
  6820 ;;		Nothing
  6821 ;; This function is called by:
  6822 ;;		_input_high
  6823 ;;		_input_low
  6824 ;; This function uses a non-reentrant model
  6825 ;;
  6826                           
  6827                           
  6828                           ;psect for function _serial_clock_pulse
  6829  08A5                     _serial_clock_pulse:
  6830  08A5                     l2411:	
  6831                           ;incstack = 0
  6832                           ; Regs used in _serial_clock_pulse: [wreg]
  6833                           
  6834                           
  6835                           ;Main.c: 269: PORTCbits.RC6 = 0;
  6836  08A5  1283               	bcf	3,5	;RP0=0, select bank0
  6837  08A6  1303               	bcf	3,6	;RP1=0, select bank0
  6838  08A7  1307               	bcf	7,6	;volatile
  6839  08A8                     l2413:
  6840                           
  6841                           ;Main.c: 270: _delay((unsigned long)((5)*(8000000/4000000.0)));
  6842  08A8  3003               	movlw	3
  6843  08A9  00F3               	movwf	??_serial_clock_pulse
  6844  08AA                     u5487:
  6845  08AA  0BF3               	decfsz	??_serial_clock_pulse,f
  6846  08AB  28AA               	goto	u5487
  6847  08AC                     l2415:
  6848                           
  6849                           ;Main.c: 271: PORTCbits.RC6 = 1;
  6850  08AC  1283               	bcf	3,5	;RP0=0, select bank0
  6851  08AD  1303               	bcf	3,6	;RP1=0, select bank0
  6852  08AE  1707               	bsf	7,6	;volatile
  6853                           
  6854                           ;Main.c: 272: _delay((unsigned long)((5)*(8000000/4000000.0)));
  6855  08AF  3003               	movlw	3
  6856  08B0  00F3               	movwf	??_serial_clock_pulse
  6857  08B1                     u5497:
  6858  08B1  0BF3               	decfsz	??_serial_clock_pulse,f
  6859  08B2  28B1               	goto	u5497
  6860  08B3                     l2417:
  6861                           
  6862                           ;Main.c: 273: PORTCbits.RC6 = 0;
  6863  08B3  1283               	bcf	3,5	;RP0=0, select bank0
  6864  08B4  1303               	bcf	3,6	;RP1=0, select bank0
  6865  08B5  1307               	bcf	7,6	;volatile
  6866                           
  6867                           ;Main.c: 274: _delay((unsigned long)((5)*(8000000/4000000.0)));
  6868  08B6  3003               	movlw	3
  6869  08B7  00F3               	movwf	??_serial_clock_pulse
  6870  08B8                     u5507:
  6871  08B8  0BF3               	decfsz	??_serial_clock_pulse,f
  6872  08B9  28B8               	goto	u5507
  6873  08BA                     l84:
  6874  08BA  0008               	return
  6875  08BB                     __end_of_serial_clock_pulse:
  6876                           
  6877                           	psect	text11
  6878  088F                     __ptext11:	
  6879 ;; *************** function _ISR *****************
  6880 ;; Defined at:
  6881 ;;		line 36 in file "Main.c"
  6882 ;; Parameters:    Size  Location     Type
  6883 ;;		None
  6884 ;; Auto vars:     Size  Location     Type
  6885 ;;		None
  6886 ;; Return value:  Size  Location     Type
  6887 ;;                  1    wreg      void 
  6888 ;; Registers used:
  6889 ;;		wreg, status,2, status,0
  6890 ;; Tracked objects:
  6891 ;;		On entry : 0/0
  6892 ;;		On exit  : 0/0
  6893 ;;		Unchanged: 0/0
  6894 ;; Data sizes:     COMMON   BANK0   BANK1   BANK2
  6895 ;;      Params:         0       0       0       0
  6896 ;;      Locals:         0       0       0       0
  6897 ;;      Temps:          3       0       0       0
  6898 ;;      Totals:         3       0       0       0
  6899 ;;Total ram usage:        3 bytes
  6900 ;; Hardware stack levels used: 1
  6901 ;; This function calls:
  6902 ;;		Nothing
  6903 ;; This function is called by:
  6904 ;;		Interrupt level 1
  6905 ;; This function uses a non-reentrant model
  6906 ;;
  6907                           
  6908                           
  6909                           ;psect for function _ISR
  6910  088F                     _ISR:
  6911  088F                     i1l3787:
  6912                           
  6913                           ;Main.c: 38: TMR1 = 63035;
  6914  088F  30F6               	movlw	246
  6915  0890  1283               	bcf	3,5	;RP0=0, select bank0
  6916  0891  1303               	bcf	3,6	;RP1=0, select bank0
  6917  0892  008F               	movwf	15	;volatile
  6918  0893  303B               	movlw	59
  6919  0894  008E               	movwf	14	;volatile
  6920                           
  6921                           ;Main.c: 40: if (PIR1bits.TMR1IF == 1) {
  6922  0895  1C0C               	btfss	12,0	;volatile
  6923  0896  2898               	goto	u542_21
  6924  0897  2899               	goto	u542_20
  6925  0898                     u542_21:
  6926  0898  289E               	goto	i1l42
  6927  0899                     u542_20:
  6928  0899                     i1l3789:
  6929                           
  6930                           ;Main.c: 41: timer_count++;
  6931  0899  3001               	movlw	1
  6932  089A  00F0               	movwf	??_ISR
  6933  089B  0870               	movf	??_ISR,w
  6934  089C  07C4               	addwf	_timer_count,f
  6935  089D                     i1l3791:
  6936                           
  6937                           ;Main.c: 43: PIR1bits.TMR1IF = 0;
  6938  089D  100C               	bcf	12,0	;volatile
  6939  089E                     i1l42:
  6940  089E  0872               	movf	??_ISR+2,w
  6941  089F  008A               	movwf	10
  6942  08A0  0E71               	swapf	??_ISR+1,w
  6943  08A1  0083               	movwf	3
  6944  08A2  0EFE               	swapf	btemp,f
  6945  08A3  0E7E               	swapf	btemp,w
  6946  08A4  0009               	retfie
  6947  08A5                     __end_of_ISR:
  6948  007E                     btemp	set	126	;btemp
  6949  007E                     wtemp0	set	126
  6950                           
  6951                           	psect	intentry
  6952  0004                     __pintentry:	
  6953                           ;incstack = 0
  6954                           ; Regs used in _ISR: [wreg+status,2+status,0]
  6955                           
  6956  0004                     interrupt_function:
  6957  007E                     saved_w	set	btemp
  6958  0004  00FE               	movwf	btemp
  6959  0005  0E03               	swapf	3,w
  6960  0006  00F1               	movwf	??_ISR+1
  6961  0007  080A               	movf	10,w
  6962  0008  00F2               	movwf	??_ISR+2
  6963  0009  158A  288F         	ljmp	_ISR
  6964                           
  6965                           	psect	config
  6966                           
  6967                           ;Config register CONFIG @ 0x2007
  6968                           ;	Oscillator Selection bits
  6969                           ;	FOSC = INTRCCLK, INTOSC oscillator: CLKOUT function on RA4/OSC2/CLKOUT pin, I/O functi
      +                          on on RA5/OSC1/CLKIN
  6970                           ;	Watchdog Timer Enable bit
  6971                           ;	WDTE = OFF, WDT disabled and can be enabled by SWDTEN bit of the WDTCON register
  6972                           ;	Power-up Timer Enable bit
  6973                           ;	PWRTE = OFF, PWRT disabled
  6974                           ;	MCLR Pin Function Select bit
  6975                           ;	MCLRE = OFF, MCLR pin function is digital input, MCLR internally tied to VDD
  6976                           ;	Code Protection bit
  6977                           ;	CP = OFF, Program memory code protection is disabled
  6978                           ;	Data Code Protection bit
  6979                           ;	CPD = OFF, Data memory code protection is disabled
  6980                           ;	Brown-out Reset Selection bits
  6981                           ;	BOREN = OFF, BOR disabled
  6982                           ;	Internal External Switchover bit
  6983                           ;	IESO = OFF, Internal External Switchover mode is disabled
  6984                           ;	Fail-Safe Clock Monitor Enabled bit
  6985                           ;	FCMEN = ON, Fail-Safe Clock Monitor is enabled
  6986  2007                     	org	8199
  6987  2007  38D5               	dw	14549

Data Sizes:
    Strings     0
    Constant    0
    Data        0
    BSS         1
    Persistent  0
    Stack       0

Auto Spaces:
    Space          Size  Autos    Used
    COMMON           14     11      11
    BANK0            80     36      37
    BANK1            80      0       0
    BANK2            80      0       0

Pointer List with Targets:

    None.

Critical Paths under _main in COMMON

    _animation_red_arrow->_red_arrow
    _red_arrow->_input_data
    _animation_green_arrow->_green_arrow
    _green_arrow->_input_data
    _input_low->_serial_clock_pulse
    _input_high->_serial_clock_pulse

Critical Paths under _ISR in COMMON

    None.

Critical Paths under _main in BANK0

    _main->_animation_green_arrow
    _main->_animation_red_arrow

Critical Paths under _ISR in BANK0

    None.

Critical Paths under _main in BANK1

    None.

Critical Paths under _ISR in BANK1

    None.

Critical Paths under _main in BANK2

    None.

Critical Paths under _ISR in BANK2

    None.

Call Graph Tables:

 ---------------------------------------------------------------------------------
 (Depth) Function   	        Calls       Base Space   Used Autos Params    Refs
 ---------------------------------------------------------------------------------
 (0) _main                                                 3     3      0    8968
                                             33 BANK0      3     3      0
              _animation_green_arrow
                _animation_red_arrow
                           _initiate
 ---------------------------------------------------------------------------------
 (1) _initiate                                             0     0      0       0
 ---------------------------------------------------------------------------------
 (1) _animation_red_arrow                                 33    33      0    4484
                                              0 BANK0     33    33      0
                         _input_data
                       _latch_output
                          _red_arrow
 ---------------------------------------------------------------------------------
 (2) _red_arrow                                            6     6      0     493
                                              5 COMMON     6     6      0
                         _input_data
                       _latch_output
 ---------------------------------------------------------------------------------
 (1) _animation_green_arrow                               33    33      0    4484
                                              0 BANK0     33    33      0
                        _green_arrow
                         _input_data
                       _latch_output
 ---------------------------------------------------------------------------------
 (2) _green_arrow                                          6     6      0     493
                                              5 COMMON     6     6      0
                         _input_data
                       _latch_output
 ---------------------------------------------------------------------------------
 (3) _latch_output                                         1     1      0       0
                                              3 COMMON     1     1      0
 ---------------------------------------------------------------------------------
 (3) _input_data                                           1     1      0     176
                                              4 COMMON     1     1      0
                         _input_high
                          _input_low
 ---------------------------------------------------------------------------------
 (4) _input_low                                            0     0      0       0
                 _serial_clock_pulse
 ---------------------------------------------------------------------------------
 (4) _input_high                                           0     0      0       0
                 _serial_clock_pulse
 ---------------------------------------------------------------------------------
 (5) _serial_clock_pulse                                   1     1      0       0
                                              3 COMMON     1     1      0
 ---------------------------------------------------------------------------------
 Estimated maximum stack depth 5
 ---------------------------------------------------------------------------------
 (Depth) Function   	        Calls       Base Space   Used Autos Params    Refs
 ---------------------------------------------------------------------------------
 (6) _ISR                                                  3     3      0       0
                                              0 COMMON     3     3      0
 ---------------------------------------------------------------------------------
 Estimated maximum stack depth 6
 ---------------------------------------------------------------------------------

 Call Graph Graphs:

 _main (ROOT)
   _animation_green_arrow
     _green_arrow
       _input_data
         _input_high
           _serial_clock_pulse
         _input_low
           _serial_clock_pulse
       _latch_output
     _input_data
     _latch_output
   _animation_red_arrow
     _input_data
     _latch_output
     _red_arrow
       _input_data
       _latch_output
   _initiate

 _ISR (ROOT)

 Address spaces:
Name               Size   Autos  Total    Cost      Usage
BITCOMMON            E      0       0       0        0.0%
EEDATA             100      0       0       0        0.0%
NULL                 0      0       0       0        0.0%
CODE                 0      0       0       0        0.0%
COMMON               E      B       B       1       78.6%
BITSFR0              0      0       0       1        0.0%
SFR0                 0      0       0       1        0.0%
BITSFR1              0      0       0       2        0.0%
SFR1                 0      0       0       2        0.0%
STACK                0      0       0       2        0.0%
BANK0               50     24      25       3       46.2%
BITBANK1            50      0       0       4        0.0%
BITSFR3              0      0       0       4        0.0%
SFR3                 0      0       0       4        0.0%
BANK1               50      0       0       5        0.0%
BITSFR2              0      0       0       5        0.0%
SFR2                 0      0       0       5        0.0%
BITBANK2            50      0       0       6        0.0%
BANK2               50      0       0       7        0.0%
ABS                  0      0      30       8        0.0%
BITBANK0            50      0       0       9        0.0%
DATA                 0      0      30      10        0.0%


Microchip Technology PIC Macro Assembler V2.32 build 20210201212658 
Symbol Table                                                                                   Sun Jun 26 15:51:34 2022

   __size_of_serial_clock_pulse 0016                              l53 08E9                              l81 07F7  
                            l90 0768                              l75 0971                              l84 08BA  
                            l78 07FE                              l87 08D0                             l101 07F0  
                           l115 0765                             l300 0ADF                             l118 002A  
                           l312 0B5B                             l401 0F5E                             l410 0FBD  
                           l324 0BDE                             l415 0FFF                             l351 0D07  
                           l336 0C68                             l281 0A00                             l273 0995  
                           l265 06D8                             l362 0D90                             l290 0A6A  
                           l373 0E13                             l269 097A                             l383 0E8B  
                           l392 0EF8                             _ISR 088F    __size_of_animation_red_arrow 06C6  
                          ?_ISR 0070                            l3001 0E01                            l3011 0E2A  
                          l3003 0E05                            l3101 0F36                            l3021 0E4C  
                          l3013 0E2E                            l3111 0F4C                            l3103 0F39  
                          l3031 0E63                            l3023 0E50                            l3015 0E37  
                          l3007 0E17                            l3121 0F75                            l3113 0F50  
                          l3041 0E79                            l3033 0E66                            l3025 0E57  
                          l3017 0E3E                            l3009 0E1D                            l3201 0042  
                          l2411 08A5                            l3131 0F91                            l3123 0F79  
                          l3107 0F42                            l3051 0EA2                            l3043 0E7D  
                          l3027 0E5B                            l3019 0E45                            l3211 0065  
                          l3203 004F                            l2413 08A8                            l2421 07FB  
                          l2501 078D                            l3141 0FA9                            l3133 0F95  
                          l3125 0F82                            l3117 0F62                            l3109 0F4A  
                          l3061 0EC4                            l3053 0EA6                            l3029 0E5F  
                          l3037 0E6F                            l3301 0166                            l3221 007E  
                          l3213 0069                            l3205 0053                            l2415 08AC  
                          l2423 07F1                            l2431 0921                            l2503 0793  
                          l2511 07AE                            l3151 0FC7                            l3143 0FAB  
                          l3135 0F98                            l3127 0F89                            l3119 0F68  
                          l3063 0EC8                            l3055 0EAF                            l3047 0E8F  
                          l3039 0E77                            l3311 017C                            l3303 0169  
                          l3215 006D                            l3207 005B                            l3223 008B  
                          l2417 08B3                            l2425 07F4                            l2441 0933  
                          l2433 0924                            l2521 07C7                            l2513 07B3  
                          l2505 0799                            l3161 0FE6                            l3153 0FD4  
                          l3145 0FAF                            l3129 0F8D                            l3065 0ECC  
                          l3057 0EB6                            l3049 0E95                            l3073 0EDC  
                          l2601 0989                            l3401 0279                            l3321 0198  
                          l3313 017E                            l3241 00C2                            l3233 00A5  
                          l3225 0093                            l3217 0073                            l3209 005F  
                          l2419 07F8                            l2451 0945                            l2443 0937  
                          l2435 0928                            l2427 0919                            l2523 07CB  
                          l2515 07BA                            l2507 07A0                            l3171 0FFE  
                          l3163 0FEA                            l3155 0FD8                            l3139 0FA1  
                          l3091 0F1C                            l3083 0EFC                            l3075 0EE4  
                          l3067 0ED0                            l3059 0EBD                            l2611 0999  
                          l2603 0991                            l2531 06D9                            l3411 0293  
                          l3403 0281                            l3331 01BD                            l3323 01A5  
                          l3307 0172                            l3251 00DF                            l3243 00CB  
                          l3235 00AB                            l3227 0095                            l3219 0076  
                          l2461 0958                            l2453 0949                            l2445 093A  
                          l2437 092C                            l2429 091D                            l2525 07CE  
                          l2517 07BF                            l2509 07A7                            l3165 0FED  
                          l3157 0FE1                            l3149 0FC1                            l3093 0F23  
                          l3085 0F02                            l3077 0EE6                            l3069 0ED3  
                          l2701 0AA7                            l2621 09BC                            l2613 099F  
                          l2605 0993                            l2541 06DF                            l3421 02B9  
                          l3413 0299                            l3405 0283                            l3341 01D8  
                          l3333 01C3                            l3325 01A9                            l3317 018C  
                          l3309 017A                            l3253 00E3                            l3245 00CF  
                          l3237 00B1                            l3229 0097                            l3181 001B  
                          l3173 0013                            l2471 096A                            l2463 095B  
                          l2455 094D                            l2447 093E                            l2439 092F  
                          l2527 07D4                            l2519 07C3                            l3159 0FE2  
                          l3095 0F2A                            l3087 0F0F                            l3079 0EEA  
                          l2711 0ABC                            l2703 0AAD                            l2631 09D1  
                          l2623 09C2                            l2615 09AC                            l2551 0702  
                          l2543 06E5                            l3511 03B2                            l3503 039C  
                          l3431 02D7                            l3423 02BD                            l3415 029F  
                          l3407 0285                            l3343 01DC                            l3335 01C7  
                          l3327 01B2                            l3319 0192                            l3255 00E7  
                          l3247 00D5                            l3239 00BE                            l3263 00F9  
                          l3191 0034                            l3183 001F                            l3175 0013  
                          l2473 096E                            l2465 095F                            l2457 0950  
                          l2449 0942                            l2481 08C9                            l2529 07E1  
                          l3169 0FF6                            l3097 0F2E                            l3089 0F13  
                          l2801 0BBB                            l2721 0AD1                            l2705 0AB1  
                          l2641 09F2                            l2633 09D9                            l2625 09C6  
                          l2617 09B0                            l2553 0708                            l2561 0723  
                          l2545 06F2                            l2537 06DB                            l3601 04BC  
                          l3521 03D0                            l3513 03B6                            l3505 03A4  
                          l3441 02F1                            l3433 02DB                            l3425 02C4  
                          l3417 02AC                            l3345 01E0                            l3337 01CE  
                          l3329 01B6                            l3353 01F2                            l3281 0130  
                          l3273 0113                            l3265 0101                            l3257 00ED  
                          l3249 00D9                            l3185 0023                            l3177 0016  
                          l2467 0963                            l2459 0954                            l2475 08BB  
                          l2491 076A                            l2483 0766                            l3099 0F32  
                          l2811 0BD0                            l2731 0AFA                            l2707 0AB5  
                          l2715 0AC5                            l2651 0A1B                            l2627 09CA  
                          l2619 09B8                            l2635 09E6                            l2571 073C  
                          l2563 0728                            l2555 070E                            l2547 06F6  
                          l2539 06DF                            l3611 04D8                            l3603 04C4  
                          l3531 03F7                            l3523 03DD                            l3507 03A6  
                          l3443 02F5                            l3435 02E2                            l3427 02CA  
                          l3419 02B0                            l3451 0307                            l3371 0229  
                          l3363 020C                            l3355 01FA                            l3347 01E6  
                          l3339 01D2                            l3291 014E                            l3283 0139  
                          l3275 0119                            l3267 0103                            l3259 00F0  
                          l3187 0027                            l3179 001B                            l2469 0966  
                          l2477 08BE                            l2493 0770                            l2821 0BF9  
                          l2805 0BC4                            l2741 0B18                            l2733 0B03  
                          l2725 0AE3                            l2717 0ACD                            l2709 0AB9  
                          l2661 0A38                            l2653 0A24                            l2645 0A04  
                          l2637 09EE                            l2629 09CE                            l2573 0740  
                          l2565 072F                            l2557 0715                            l2549 06FD  
                          l3701 05EB                            l3621 04FE                            l3613 04DE  
                          l3605 04C6                            l3541 0414                            l3533 03FE  
                          l3525 03E1                            l3517 03C4                            l3509 03A9  
                          l3461 0321                            l3453 030F                            l3445 02FB  
                          l3437 02E6                            l3429 02D0                            l3381 0249  
                          l3373 0232                            l3365 0212                            l3357 01FC  
                          l3349 01E9                            l3293 0152                            l3285 013D  
                          l3277 011F                            l3269 0105                            l3197 0036  
                          l3189 0032                            l2581 08D1                            l2479 08C2  
                          l2495 077D                            l2911 0CF5                            l2903 0CDF  
                          l2831 0C19                            l2823 0C02                            l2815 0BE2  
                          l2807 0BCC                            l2751 0B31                            l2743 0B1F  
                          l2735 0B07                            l2727 0AE9                            l2719 0ACF  
                          l2663 0A3C                            l2655 0A28                            l2647 0A0A  
                          l2639 09F0                            l2575 0743                            l2567 0734  
                          l2559 071C                            l3711 0607                            l3703 05F2  
                          l3631 051E                            l3623 0505                            l3615 04E4  
                          l3607 04CA                            l3551 042C                            l3543 041B  
                          l3527 03EA                            l3535 0405                            l3519 03CA  
                          l3471 0347                            l3463 0327                            l3455 0311  
                          l3447 02FE                            l3439 02ED                            l3391 0263  
                          l3383 024D                            l3375 0236                            l3367 0218  
                          l3359 01FE                            l3295 0158                            l3287 0144  
                          l3279 012C                            l3199 003C                            l2591 08DF  
                          l2583 08D9                            l2497 0781                            l2489 076A  
                          l2921 0D1E                            l2913 0CF9                            l2905 0CE7  
                          l2841 0C36                            l2833 0C20                            l2825 0C06  
                          l2817 0BE8                            l2809 0BCE                            l2761 0B49  
                          l2753 0B35                            l2745 0B23                            l2737 0B0E  
                          l2729 0AF6                            l2665 0A40                            l2657 0A2E  
                          l2649 0A17                            l2673 0A50                            l2593 0972  
                          l2577 0749                            l2569 0738                            l3721 061D  
                          l3713 060A                            l3705 05F9                            l3633 0522  
                          l3625 050C                            l3617 04F1                            l3561 0443  
                          l3545 041F                            l3537 0409                            l3529 03F0  
                          l3481 0365                            l3473 034B                            l3465 032D  
                          l3457 0313                            l3393 0267                            l3385 0254  
                          l3377 023D                            l3369 0225                            l3297 015C  
                          l3289 0148                            l2585 08DC                            l3801 0902  
                          l2499 0788                            l2931 0D3F                            l2923 0D22  
                          l2907 0CE9                            l2843 0C3A                            l2835 0C24  
                          l2827 0C0D                            l2819 0BF5                            l2771 0B65  
                          l2763 0B4B                            l2755 0B38                            l2747 0B29  
                          l2739 0B14                            l2691 0A8E                            l2683 0A6E  
                          l2675 0A58                            l2667 0A44                            l2659 0A32  
                          l2595 0972                            l2579 0756                            l3731 063B  
                          l3723 0621                            l3707 05FD                            l3635 0526  
                          l3627 0513                            l3619 04F5                            l3643 0538  
                          l3571 046A                            l3547 0423                            l3539 0410  
                          l3555 0435                            l3491 0382                            l3475 0352  
                          l3483 036C                            l3467 033A                            l3395 026D  
                          l3387 0258                            l3379 0243                            l3299 0160  
                          l2587 08DD                            l3803 0911                            l2941 0D5C  
                          l2925 0D2B                            l2933 0D46                            l2917 0D0B  
                          l2909 0CEC                            l2845 0C3E                            l2837 0C2B  
                          l2829 0C13                            l2853 0C4E                            l2781 0B8A  
                          l2773 0B72                            l2765 0B4D                            l2749 0B2D  
                          l2693 0A92                            l2685 0A74                            l2677 0A5A  
                          l2669 0A47                            l2597 0975                            l3741 0660  
                          l3733 0648                            l3709 0601                            l3717 0613  
                          l3661 0571                            l3653 0554                            l3645 0540  
                          l3637 052C                            l3629 0517                            l3581 048C  
                          l3573 046E                            l3565 0451                            l3557 043D  
                          l3549 0429                            l3493 0386                            l3485 0370  
                          l3477 0358                            l3469 033E                            l3397 0270  
                          l3389 025F                            l2589 08DE                            l3805 0914  
                          l2943 0D60                            l2935 0D4A                            l2927 0D31  
                          l2919 0D11                            l2871 0C8C                            l2863 0C6C  
                          l2855 0C56                            l2847 0C42                            l2839 0C2F  
                          l2791 0BA5                            l2783 0B90                            l2775 0B76  
                          l2759 0B41                            l2695 0A99                            l2687 0A81  
                          l2679 0A5C                            l2599 097A                            l3743 0664  
                          l3735 064C                            l3727 062F                            l3751 0676  
                          l3719 061B                            l3671 0593                            l3663 057A  
                          l3655 055A                            l3647 0542                            l3639 052F  
                          l3591 04A6                            l3583 0490                            l3575 0477  
                          l3567 0457                            l3559 043F                            l3495 038A  
                          l3487 0377                            l3479 035E                            l2945 0D64  
                          l2937 0D51                            l2929 0D38                            l2953 0D74  
                          l2881 0CAA                            l2873 0C90                            l2865 0C72  
                          l2857 0C58                            l2849 0C45                            l2793 0BAC  
                          l2785 0B96                            l2777 0B7F                            l2769 0B5F  
                          l2697 0A9D                            l2689 0A85                            l3761 0692  
                          l3753 067E                            l3745 066A                            l3737 0655  
                          l3729 0635                            l3673 0597                            l3665 0581  
                          l3657 0560                            l3649 0546                            l3681 05A9  
                          l3593 04AA                            l3585 0497                            l3577 047E  
                          l3569 045D                            l3497 0390                            l3489 037B  
                          l2971 0DB4                            l2963 0D94                            l2955 0D7C  
                          l2947 0D68                            l2939 0D55                            l2891 0CC7  
                          l2875 0C97                            l2883 0CB1                            l2867 0C7F  
                          l2859 0C5A                            l2795 0BB0                            l2787 0B9A  
                          l2779 0B83                            l2699 0AA3                            l3771 06B8  
                          l3763 0698                            l3755 0680                            l3747 066D  
                          l3739 065C                            l3691 05C5                            l3683 05B1  
                          l3675 059D                            l3667 0588                            l3659 056D  
                          l3595 04B0                            l3587 049B                            l3579 0485  
                          l3499 0393                            l2981 0DD4                            l2973 0DBB  
                          l2965 0D9A                            l2957 0D7E                            l2949 0D6B  
                          l2893 0CCB                            l2885 0CB5                            l2877 0C9D  
                          l2869 0C83                            l2797 0BB4                            l2789 0BA1  
                          l3773 06B9                            l3765 069E                            l3757 0684  
                          l3693 05CB                            l3685 05B3                            l3677 05A0  
                          l3669 058F                            l3597 04B3                            l3589 04A2  
                          l2991 0DEB                            l2983 0DD8                            l2975 0DC2  
                          l2967 0DA7                            l2959 0D82                            l2895 0CCF  
                          l2887 0CBC                            l2879 0CA3                            l2799 0BB8  
                          l3775 06BD                            l3767 06AB                            l3783 06CF  
                          l3695 05D1                            l3687 05B7                            l2993 0DEE  
                          l2985 0DDF                            l2977 0DC9                            l2969 0DAB  
                          l2897 0CD3                            l2889 0CC0                            l3785 06D7  
                          l3777 06C3                            l3769 06AF                            l3697 05DE  
                          l3793 08EA                            l2987 0DE3                            l2979 0DCD  
                          l2899 0CD6                            l3779 06C6                            l3699 05E2  
                          l3795 08ED                            l2989 0DE7                            l2997 0DF7  
                          l3797 08F0                            l2999 0DFF                            l3799 08FF  
                          u3000 0991                            u3001 0990                            u3010 099F  
                          u3011 099E                            u3100 0A24                            u3101 0A23  
                          u3110 0A2E                            u3030 09B8                            u3111 0A2D  
                          u3031 09B7                            u4000 0EBD                            u3200 0AAD  
                          u3120 0A38                            u3040 09C2                            u3024 09A5  
                          u4001 0EBC                            u3201 0AAC                            u3121 0A37  
                          u3041 09C1                            u3025 09A3                            u4010 0EC4  
                          u3210 0ACD                            u3130 0A58                            u3050 09E6  
                          u4011 0EC3                            u3211 0ACC                            u3131 0A57  
                          u3051 09E5                            u4100 0F5D                            u4020 0EE4  
                          u3300 0B49                            u3220 0ADE                            u3140 0A69  
                          u3060 09EE                            u4101 0F5C                            u4021 0EE3  
                          u3301 0B48                            u3221 0ADD                            u3141 0A68  
                          u3061 09ED                            u4110 0F68                            u4030 0EF7  
                          u3310 0B5A                            u3230 0AE9                            u3150 0A74  
                          u3070 09FF                            u4111 0F67                            u4031 0EF6  
                          u3311 0B59                            u3231 0AE8                            u3151 0A73  
                          u3071 09FE                            u3055 09E2                            u4200 0FFE  
                          u4040 0F02                            u3400 0BCC                            u3320 0B65  
                          u3080 0A0A                            u5000 0477                            u4201 0FFD  
                          u4105 0F59                            u4041 0F01                            u3401 0BCB  
                          u3321 0B64                            u3225 0ADA                            u3145 0A65  
                          u3081 0A09                            u5001 0476                            u4130 0F82  
                          u3410 0BDD                            u3250 0B03                            u3170 0A8E  
                          u5010 047E                            u4210 0032                            u4131 0F81  
                          u4035 0EF3                            u3411 0BDC                            u3315 0B56  
                          u3251 0B02                            u3171 0A8D                            u3075 09FB  
                          u5011 047D                            u4211 0031                            u4140 0F89  
                          u4124 0F6E                            u4060 0F1C                            u3500 0C36  
                          u3420 0BE8                            u3340 0B7F                            u3260 0B0E  
                          u3244 0AEF                            u3180 0A99                            u3164 0A7A  
                          u5100 04FE                            u5020 0485                            u4220 0042  
                          u4141 0F88                            u4125 0F6C                            u4061 0F1B  
                          u3501 0C35                            u3421 0BE7                            u3341 0B7E  
                          u3261 0B0D                            u3245 0AED                            u3181 0A98  
                          u3165 0A78                            u5101 04FD                            u5021 0484  
                          u4221 0041                            u4150 0FA9                            u4070 0F23  
                          u4054 0F08                            u3510 0C56                            u3350 0B8A  
                          u3334 0B6B                            u3270 0B14                            u3190 0AA3  
                          u3094 0A10                            u5110 0505                            u5030 048C  
                          u4310 00CB                            u4151 0FA8                            u4071 0F22  
                          u4055 0F06                            u3511 0C55                            u3415 0BD9  
                          u3351 0B89                            u3335 0B69                            u3271 0B13  
                          u3191 0AA2                            u3095 0A0E                            u5111 0504  
                          u5031 048B                            u4311 00CA                            _PIE1 008C  
                          u2720 091D                            u2800 0770                            u4160 0FBC  
                          u4080 0F2A                            u3600 0CB1                            u3520 0C67  
                          u3440 0C02                            u3360 0B90                            u3280 0B1F  
                          u5200 0581                            u5120 050C                            u5040 0497  
                          u4400 014E                            u4320 00D5                            u4304 00B7  
                          u4240 005B                            u2721 091C                            u2801 076F  
                          u4161 0FBB                            u4081 0F29                            u3601 0CB0  
                          u3521 0C66                            u3441 0C01                            u3361 0B8F  
                          u3281 0B1E                            u5201 0580                            u5121 050B  
                          u5041 0496                            u4401 014D                            u4321 00D4  
                          u4305 00B5                            u4241 005A                            u2730 0928  
                          u4170 0FC7                            u4090 0F4A                            u3610 0CBC  
                          u3530 0C72                            u3450 0C0D                            u3434 0BEE  
                          u3370 0B96                            u3290 0B29                            u5210 0588  
                          u5130 0513                            u5050 04A2                            u4410 0158  
                          u4330 00DF                            u4250 0065                            u4234 0048  
                          u2731 0927                            u4171 0FC6                            u4091 0F49  
                          u3611 0CBB                            u3531 0C71                            u3451 0C0C  
                          u3435 0BEC                            u3371 0B95                            u3291 0B28  
                          u5211 0587                            u5131 0512                            u5051 04A1  
                          u4411 0157                            u4331 00DE                            u4251 0064  
                          u4235 0046                            u2740 0933                            u2820 0788  
                          u3700 0D38                            u3620 0CC7                            u3460 0C13  
                          u3380 0BA1                            u2900 06E5                            u5300 061B  
                          u5220 058F                            u5140 051E                            u5060 04C4  
                          u4500 01D8                            u4420 017A                            u4340 0101  
                          u4260 008B                            u2741 0932                            u2821 0787  
                          u4165 0FB8                            u3701 0D37                            u3621 0CC6  
                          u3525 0C63                            u3461 0C12                            u3381 0BA0  
                          u2901 06E4                            u5301 061A                            u5221 058E  
                          u5141 051D                            u5061 04C3                            u4501 01D7  
                          u4421 0179                            u4341 0100                            u4261 008A  
                          u2750 093E                            u2830 0793                            u2814 0776  
                          u4190 0FE1                            u3710 0D3F                            u3630 0CE7  
                          u3550 0C8C                            u3470 0C19                            u3390 0BAC  
                          u5310 062E                            u5230 05B1                            u5150 0540  
                          u5070 04D7                            u4510 01FA                            u4430 018B  
                          u4350 0112                            u4270 0093                            u2751 093D  
                          u2831 0792                            u2815 0774                            u4191 0FE0  
                          u3711 0D3E                            u3631 0CE6                            u3551 0C8B  
                          u3471 0C18                            u3391 0BAB                            u5311 062D  
                          u5231 05B0                            u5151 053F                            u5071 04D6  
                          u4511 01F9                            u4431 018A                            u4351 0111  
                          u4271 0092                            u2760 0949                            u2840 0799  
                          u4184 0FCD                            u3800 0DBB                            u3720 0D46  
                          u3640 0CF4                            u3560 0C97                            u3544 0C78  
                          u3480 0C20                            u2920 06FD                            u5400 06B8  
                          u5320 063B                            u5240 05C4                            u5160 0553  
                          u5080 04E4                            u4600 025F                            u4520 020B  
                          u4440 0198                            u4360 011F                            u4280 00A4  
                          u2761 0948                            u2841 0798                            u4185 0FCB  
                          u3801 0DBA                            u3721 0D45                            u3641 0CF3  
                          u3561 0C96                            u3545 0C76                            u3481 0C1F  
                          u2921 06FC                            u5401 06B7                            u5321 063A  
                          u5241 05C3                            u5161 0552                            u5081 04E3  
                          u4601 025E                            u4521 020A                            u4441 0197  
                          u4361 011E                            u4281 00A3                            u4265 0087  
                          u2770 0954                            u2850 07A0                            u3810 0DC2  
                          u3730 0D51                            u3650 0D06                            u3570 0C9D  
                          u3490 0C2B                            u2930 0708                            u2914 06EB  
                          u5410 06D7                            u5250 05D1                            u5170 0560  
                          u4610 0281                            u4530 0218                            u4290 00B1  
                          u2771 0953                            u2851 079F                            u3811 0DC1  
                          u3731 0D50                            u3651 0D05                            u3571 0C9C  
                          u3491 0C2A                            u2931 0707                            u2915 06E9  
                          u5411 06D6                            u5315 062A                            u5251 05D0  
                          u5171 055F                            u5075 04D3                            u4611 0280  
                          u4531 0217                            u4435 0187                            u4355 010E  
                          u4291 00B0                            u2780 095F                            u2860 07A7  
                          u3900 0E3E                            u3820 0DC9                            u3740 0D5C  
                          u3660 0D11                            u3580 0CA3                            u2940 070E  
                          u5340 0655                            u4700 02E2                            u4620 0292  
                          u4460 01B2                            u4380 0139                            u2781 095E  
                          u2861 07A6                            u3901 0E3D                            u3821 0DC8  
                          u3741 0D5B                            u3661 0D10                            u3581 0CA2  
                          u2941 070D                            u5341 0654                            u5245 05C0  
                          u5165 054F                            u4701 02E1                            u4621 0291  
                          u4525 0207                            u4461 01B1                            u4381 0138  
                          u4285 00A0                            u2790 096A                            u2870 07AE  
                          u3910 0E45                            u3830 0DD4                            u3750 0D7C  
                          u3590 0CAA                            u2950 0715                            u5350 065C  
                          u5334 0641                            u5270 05EB                            u5190 057A  
                          u5094 04EA                            u4710 02ED                            u4630 029F  
                          u4550 0232                            u4470 01BD                            u4454 019E  
                          u4390 0144                            u4374 0125                            u2791 0969  
                          u2871 07AD                            u3911 0E44                            u3831 0DD3  
                          u3751 0D7B                            u3655 0D02                            u3591 0CA9  
                          u2951 0714                            u5351 065B                            u5335 063F  
                          u5271 05EA                            u5191 0579                            u5095 04E8  
                          u4711 02EC                            u4631 029E                            u4551 0231  
                          u4471 01BC                            u4455 019C                            u4391 0143  
                          u4375 0123                            u2880 07BA                            u3920 0E4C  
                          u3840 0DDF                            u3760 0D8F                            u3680 0D2B  
                          u2960 071C                            u5360 067E                            u5280 05F2  
                          u5264 05D7                            u5184 0566                            u4800 0365  
                          u4720 030F                            u4560 023D                            u4544 021E  
                          u4480 01C3                            u2881 07B9                            u3921 0E4B  
                          u3841 0DDE                            u3761 0D8E                            u3681 0D2A  
                          u2961 071B                            u5361 067D                            u5281 05F1  
                          u5265 05D5                            u5185 0564                            u4801 0364  
                          u4721 030E                            u4625 028E                            u4561 023C  
                          u4545 021C                            u4481 01C2                            i1l42 089E  
                          u2890 07E1                            u3930 0E57                            u3850 0DFF  
                          u3770 0D9A                            u3690 0D31                            u3674 0D17  
                          u2970 0723                            u5370 0691                            u5290 05F9  
                          u4810 036C                            u4730 0320                            u4650 02B9  
                          u4570 0243                            u4490 01CE                            u5507 08B8  
                          u2891 07E0                            u3931 0E56                            u3851 0DFE  
                          u3771 0D99                            u3691 0D30                            u3675 0D15  
                          u2971 0722                            u5371 0690                            u5291 05F8  
                          u4811 036B                            u4731 031F                            u4651 02B8  
                          u4571 0242                            u4491 01CD                            u3940 0E77  
                          u3860 0E12                            u2980 072F                            u5380 069E  
                          u4900 03F0                            u4820 0377                            u4740 032D  
                          u4660 02C4                            u4644 02A5                            u4580 0249  
                          u3941 0E76                            u3861 0E11                            u3765 0D8B  
                          u2981 072E                            u5381 069D                            u4901 03EF  
                          u4821 0376                            u4741 032C                            u4661 02C3  
                          u4645 02A3                            u4581 0248                            u5437 08F8  
                          u3950 0E8A                            u3870 0E1D                            u3790 0DB4  
                          u2990 0756                            u4910 03F7                            u4830 0382  
                          u4670 02CA                            u4590 0254                            u2895 07DD  
                          u3951 0E89                            u3871 0E1C                            u3791 0DB3  
                          u2991 0755                            u5375 068D                            u4911 03F6  
                          u4831 0381                            u4735 031C                            u4671 02C9  
                          u4591 0253                            u5447 090A                            u3960 0E95  
                          u3784 0DA0                            u4920 03FE                            u4840 03A4  
                          u4760 0347                            u4680 02D0                            u5457 08C0  
                          u3961 0E94                            u3865 0E0E                            u3785 0D9E  
                          u4921 03FD                            u4841 03A3                            u4761 0346  
                          u4681 02CF                            u3890 0E37                            u5394 06A4  
                          u4930 0405                            u4850 03B1                            u4770 0352  
                          u4754 0333                            u4690 02D7                            u5467 08C7  
                          u3955 0E86                            u3891 0E36                            u2995 0752  
                          u5395 06A2                            u4931 0404                            u4851 03B0  
                          u4771 0351                            u4755 0331                            u4691 02D6  
                          u3980 0EAF                            u3884 0E23                            u4940 0410  
                          u4860 03C3                            u4780 0358                            u5477 08CE  
                          u3981 0EAE                            u3885 0E21                            u4941 040F  
                          u4861 03C2                            u4781 0357                            u3990 0EB6  
                          u3974 0E9B                            u4950 041B                            u4870 03D0  
                          u4790 035E                            u5487 08AA                            u3991 0EB5  
                          u3975 0E99                            u4951 041A                            u4871 03CF  
                          u4791 035D                            u4960 043D                            u5497 08B1  
                          u4961 043C                            u4865 03BF                            u4970 0450  
                          u4890 03EA                            u4971 044F                            u4891 03E9  
                          u4980 045D                            u4884 03D6                            u4981 045C  
                          u4885 03D4                            u4975 044C                            u4994 0463  
                          u4995 0461                            _TMR1 000E                            _main 08EA  
                  ?_green_arrow 0070                            btemp 007E                            start 000B  
                         ??_ISR 0070                           ?_main 0070                           _TRISB 0086  
                         _TRISC 0087                   ?_latch_output 0070                           pclath 000A  
        ?_animation_green_arrow 0070                           status 0003                           wtemp0 007E  
               __initialization 000D                    __end_of_main 0918                  green_arrow@col 0077  
                green_arrow@row 0078                          ??_main 0041                  ??_latch_output 0073  
                        i1l3791 089D                          i1l3787 088F                          i1l3789 0899  
                        _INTCON 000B                          u542_20 0899                          u542_21 0898  
                        _OSCCON 008F                __end_of_initiate 08EA                          saved_w 007E  
        animation_green_arrow@i 0024                   input_data@num 0074         __end_of__initialization 0010  
           _animation_red_arrow 0013            __size_of_green_arrow 008B                  __pcstackCOMMON 0070  
                  green_arrow@i 0079            ?_animation_red_arrow 0070                      __pbssBANK0 0044  
    __end_of_serial_clock_pulse 08BB              __size_of_red_arrow 008D                      __pmaintext 08EA  
          __end_of_latch_output 08D1              __size_of_input_low 0007                      __pintentry 0004  
         ??_animation_red_arrow 0020         ??_animation_green_arrow 0020                       ?_initiate 0070  
                       __ptext1 08D1                         __ptext2 0013                         __ptext3 06D9  
                       __ptext4 0972                         __ptext5 0766                         __ptext6 08BB  
                       __ptext7 0918                         __ptext8 07F1                         __ptext9 07F8  
                  __size_of_ISR 0016                       _T1CONbits 0010               __end_of_red_arrow 0766  
                    _input_data 0918                      _input_high 07F8               __end_of_input_low 07F8  
          end_of_initialization 0010                      ??_initiate 0073          animation_red_arrow@col 003F  
        animation_red_arrow@row 0040      animation_green_arrow@i_240 0037      animation_green_arrow@i_232 0028  
    animation_green_arrow@i_241 0033      animation_green_arrow@i_233 002D      animation_green_arrow@i_234 0031  
    animation_green_arrow@i_242 002F      animation_green_arrow@i_235 0035      animation_green_arrow@i_243 002A  
    animation_green_arrow@i_236 0039      animation_green_arrow@i_244 0026      animation_green_arrow@i_237 003D  
    animation_green_arrow@i_245 0022      animation_green_arrow@i_239 003B                       _PORTBbits 0006  
                     _PORTCbits 0007                    red_arrow@col 0077                    red_arrow@row 0078  
         __size_of_latch_output 0016  animation_green_arrow@ani_timer 002C             start_initialization 000D  
                   __end_of_ISR 08A5                     ?_input_data 0070                     ?_input_high 0070  
                  _latch_output 08BB                   ??_green_arrow 0075            animation_red_arrow@i 0024  
            _serial_clock_pulse 08A5                      red_arrow@i 0079                       ___latbits 0001  
                 __pcstackBANK0 0020             ?_serial_clock_pulse 0070  __size_of_animation_green_arrow 068E  
 __end_of_animation_green_arrow 1000               __size_of_initiate 0019            ??_serial_clock_pulse 0073  
           __end_of_green_arrow 07F1             __size_of_input_data 005A             __size_of_input_high 0007  
   __end_of_animation_red_arrow 06D9                       _red_arrow 06D9               interrupt_function 0004  
                     _input_low 07F1                        _PIR1bits 000C                      ?_red_arrow 0070  
                    ?_input_low 0070                     _green_arrow 0766                    ??_input_data 0074  
                  ??_input_high 0074                        __ptext10 08A5                        __ptext11 088F  
                 __size_of_main 002E                        _initiate 08D1        animation_red_arrow@i_220 003B  
      animation_red_arrow@i_221 0037        animation_red_arrow@i_213 0028        animation_red_arrow@i_222 0033  
      animation_red_arrow@i_214 002D        animation_red_arrow@i_215 0031        animation_red_arrow@i_223 002F  
      animation_red_arrow@i_216 0035        animation_red_arrow@i_224 002A        animation_red_arrow@i_217 0039  
      animation_red_arrow@i_225 0026        animation_red_arrow@i_218 003D        animation_red_arrow@i_226 0022  
            __end_of_input_data 0972              __end_of_input_high 07FF    animation_red_arrow@ani_timer 002C  
                   ??_red_arrow 0075                        intlevel1 0000                     ??_input_low 0074  
      animation_green_arrow@col 003F        animation_green_arrow@row 0040                     _timer_count 0044  
         _animation_green_arrow 0972  
